(dp0
S'dist4'
p1
(dp2
S'2.40'
p3
(lp4
(S'Solve_Succeeded'
p5
I12
F2.2727968045230673
F8.089051
tp6
a(S'Solve_Succeeded'
p7
I16
F1.7201161788736747
F12.291343
tp8
a(S'Maximum_CPU_Time_Exceeded'
p9
I77
F0.0
F120.242043
tp10
a(S'Solve_Succeeded'
p11
I14
F0.2807902231704082
F8.729962
tp12
a(S'Solve_Succeeded'
p13
I14
F0.46624862738826134
F9.011497
tp14
a(S'Solve_Succeeded'
p15
I11
F1.4591890609805127
F7.166774
tp16
a(S'Solve_Succeeded'
p17
I15
F1.1965899523194188
F9.533727
tp18
a(S'Solve_Succeeded'
p19
I11
F0.0804380778232178
F7.399831
tp20
a(S'Solve_Succeeded'
p21
I15
F0.321378152848388
F11.207892
tp22
a(S'Solve_Succeeded'
p23
I13
F0.46283694976302037
F8.407762
tp24
a(S'Solve_Succeeded'
p25
I11
F0.5099099661555799
F7.282044
tp26
a(g9
I12
F0.0
F120.55919
tp27
a(S'Solve_Succeeded'
p28
I11
F2.1699427418328154
F7.188285
tp29
a(S'Solve_Succeeded'
p30
I16
F0.49374297778462045
F9.944768
tp31
a(S'Solve_Succeeded'
p32
I14
F0.7562192605707553
F9.1761
tp33
a(S'Solve_Succeeded'
p34
I10
F1.1926200981942914
F6.714145
tp35
a(S'Solve_Succeeded'
p36
I14
F0.06969256759758165
F9.583086
tp37
a(S'Solve_Succeeded'
p38
I16
F1.3407226359593696
F10.783544
tp39
a(S'Solve_Succeeded'
p40
I10
F0.08514495347179057
F6.716599
tp41
a(S'Solve_Succeeded'
p42
I12
F0.293476706707201
F7.873879
tp43
a(S'Solve_Succeeded'
p44
I12
F12.233805978861268
F7.819523
tp45
a(S'Solve_Succeeded'
p46
I9
F0.8367454071010807
F6.159703
tp47
a(S'Solve_Succeeded'
p48
I12
F0.21052072281019416
F7.794999
tp49
a(S'Solve_Succeeded'
p50
I13
F0.6448604772639739
F8.273108
tp51
a(S'Solve_Succeeded'
p52
I10
F0.6825281662275376
F6.661622
tp53
a(S'Solve_Succeeded'
p54
I12
F9.759172766390138
F7.8153
tp55
a(S'Solve_Succeeded'
p56
I17
F0.05488055857250663
F10.852664
tp57
a(S'Solve_Succeeded'
p58
I12
F0.3248569934059715
F7.777443
tp59
a(S'Solve_Succeeded'
p60
I18
F0.4986011523910006
F11.098031
tp61
a(S'Solve_Succeeded'
p62
I13
F0.28463988448064276
F8.214459
tp63
a(S'Solve_Succeeded'
p64
I27
F1.147978712512576
F23.307687
tp65
a(S'Solve_Succeeded'
p66
I21
F0.39932060869149444
F17.721164
tp67
a(S'Solve_Succeeded'
p68
I19
F1.0042776474580888
F11.747031
tp69
a(S'Solve_Succeeded'
p70
I18
F8.059953094873388
F12.940212
tp71
a(S'Solve_Succeeded'
p72
I14
F1.6268544128555817
F8.845084
tp73
a(S'Solve_Succeeded'
p74
I9
F1.2308717732501124
F6.159399
tp75
a(S'Solve_Succeeded'
p76
I17
F0.9110516136163622
F10.732313
tp77
a(S'Solve_Succeeded'
p78
I46
F0.9970922429099063
F44.357399
tp79
a(S'Solve_Succeeded'
p80
I9
F0.2331863770756929
F6.221141
tp81
a(S'Solve_Succeeded'
p82
I11
F1.4060050300179254
F7.315259
tp83
a(S'Solve_Succeeded'
p84
I12
F0.31700663323507644
F7.874736
tp85
a(S'Solve_Succeeded'
p86
I13
F0.5436206643929617
F8.413577
tp87
a(S'Solve_Succeeded'
p88
I20
F4.598982096081938
F19.750866
tp89
a(g9
I48
F0.0
F120.357204
tp90
a(g9
I126
F0.0
F121.978424
tp91
a(S'Solve_Succeeded'
p92
I14
F1.410016127653613
F8.991734
tp93
a(S'Solve_Succeeded'
p94
I11
F0.0980129422213753
F7.377668
tp95
a(S'Solve_Succeeded'
p96
I12
F0.08233892411599372
F7.709926
tp97
a(S'Solve_Succeeded'
p98
I14
F0.6036984717444953
F9.150806
tp99
a(S'Solve_Succeeded'
p100
I23
F0.5275352260212719
F21.408513
tp101
asS'2.30'
p102
(lp103
(S'Solve_Succeeded'
p104
I12
F2.2727968045231686
F5.451951
tp105
a(S'Solve_Succeeded'
p106
I18
F1.7201161787632397
F10.107982
tp107
a(g9
I73
F0.0
F120.36272
tp108
a(S'Solve_Succeeded'
p109
I14
F0.28079022317408253
F6.175152
tp110
a(S'Solve_Succeeded'
p111
I19
F0.46624862739426204
F9.894317
tp112
a(S'Solve_Succeeded'
p113
I11
F1.4591890609803582
F4.998689
tp114
a(S'Solve_Succeeded'
p115
I15
F1.1965899521487988
F6.711923
tp116
a(S'Solve_Succeeded'
p117
I11
F0.08043807822420261
F5.097079
tp118
a(S'Solve_Succeeded'
p119
I16
F0.3213781528485653
F8.295168
tp120
a(S'Solve_Succeeded'
p121
I13
F0.46283694908512707
F5.884341
tp122
a(S'Solve_Succeeded'
p123
I12
F0.5099099661666474
F5.425169
tp124
a(g9
I11
F0.0
F120.408754
tp125
a(S'Solve_Succeeded'
p126
I11
F2.1699427418461914
F5.021052
tp127
a(S'Solve_Succeeded'
p128
I15
F0.4937429777489105
F6.607909
tp129
a(S'Solve_Succeeded'
p130
I14
F0.7562192603265913
F6.180975
tp131
a(S'Solve_Succeeded'
p132
I10
F1.1926200981933688
F4.718164
tp133
a(S'Solve_Succeeded'
p134
I14
F0.06969256803146959
F6.377232
tp135
a(S'Solve_Succeeded'
p136
I15
F1.340722635952833
F6.968039
tp137
a(S'Solve_Succeeded'
p138
I10
F0.08514495332649703
F4.728445
tp139
a(S'Solve_Succeeded'
p140
I12
F0.2934767067072477
F5.484099
tp141
a(S'Solve_Succeeded'
p142
I12
F12.23380597890179
F5.488172
tp143
a(S'Solve_Succeeded'
p144
I9
F0.8367454071009512
F4.578915
tp145
a(S'Solve_Succeeded'
p146
I12
F0.21052072281117298
F5.417302
tp147
a(S'Solve_Succeeded'
p148
I13
F0.6448604772722496
F5.875659
tp149
a(S'Solve_Succeeded'
p150
I10
F0.6825281662275492
F4.599276
tp151
a(S'Solve_Succeeded'
p152
I12
F9.759172766117588
F5.417935
tp153
a(S'Solve_Succeeded'
p154
I12
F0.05488055856855102
F5.72274
tp155
a(S'Solve_Succeeded'
p156
I12
F0.3248569934056148
F5.43965
tp157
a(S'Solve_Succeeded'
p158
I18
F0.49860115239474256
F7.727881
tp159
a(S'Solve_Succeeded'
p160
I13
F0.2846398844806657
F5.717558
tp161
a(S'Solve_Succeeded'
p162
I25
F1.1479787125017242
F14.165725
tp163
a(S'Solve_Succeeded'
p164
I20
F0.3993206088609952
F11.262959
tp165
a(S'Solve_Succeeded'
p166
I19
F1.0042776474908144
F8.523352
tp167
a(S'Solve_Succeeded'
p168
I17
F8.059953094872762
F7.548893
tp169
a(S'Solve_Succeeded'
p170
I21
F1.6268544125844424
F11.942708
tp171
a(S'Solve_Succeeded'
p172
I9
F1.2308717732574188
F4.275596
tp173
a(S'Solve_Succeeded'
p174
I18
F0.9110516136144893
F8.45262
tp175
a(S'Solve_Succeeded'
p176
I44
F0.9970922429087005
F28.509295
tp177
a(S'Solve_Succeeded'
p178
I9
F0.23318637707571013
F4.405949
tp179
a(S'Solve_Succeeded'
p180
I11
F1.4060050300182572
F5.038032
tp181
a(S'Solve_Succeeded'
p182
I12
F0.31700663323667144
F5.552033
tp183
a(S'Solve_Succeeded'
p184
I13
F0.5436206656423802
F5.861822
tp185
a(S'Solve_Succeeded'
p186
I10
F4.598982096081922
F4.741411
tp187
a(g9
I42
F0.0
F120.321897
tp188
a(S'Solve_Succeeded'
p189
I23
F0.2975292720373152
F11.944252
tp190
a(S'Solve_Succeeded'
p191
I14
F1.4100161276587324
F6.216035
tp192
a(S'Solve_Succeeded'
p193
I11
F0.09801294227083124
F5.127139
tp194
a(S'Solve_Succeeded'
p195
I12
F0.08233892410476107
F5.39855
tp196
a(S'Solve_Succeeded'
p197
I15
F0.6036984717443953
F6.665383
tp198
a(S'Solve_Succeeded'
p199
I22
F0.5275352260375242
F13.93731
tp200
asS'1'
p201
(lp202
(S'Solve_Succeeded'
p203
I11
F2.2727968047903557
F11.746602
tp204
a(S'Solve_Succeeded'
p205
I15
F1.7267252934702315
F16.666065
tp206
a(g9
I71
F0.0
F120.580402
tp207
a(S'Solve_Succeeded'
p208
I14
F0.28079022316228497
F14.45418
tp209
a(S'Solve_Succeeded'
p210
I14
F0.4662486273906066
F14.607857
tp211
a(S'Solve_Succeeded'
p212
I11
F1.4591890609804878
F11.920122
tp213
a(S'Solve_Succeeded'
p214
I15
F1.1965899520438592
F15.571656
tp215
a(S'Solve_Succeeded'
p216
I11
F0.08043807767709897
F11.836157
tp217
a(S'Solve_Succeeded'
p218
I15
F0.32137815284028437
F18.929359
tp219
a(S'Solve_Succeeded'
p220
I13
F0.4628369496854452
F13.674895
tp221
a(S'Solve_Succeeded'
p222
I11
F0.5099099661605101
F11.778586
tp223
a(g9
I13
F0.0
F120.515908
tp224
a(S'Solve_Succeeded'
p225
I11
F2.169942741834298
F11.687742
tp226
a(S'Solve_Succeeded'
p227
I16
F0.49374297778326565
F16.3067
tp228
a(S'Solve_Succeeded'
p229
I14
F0.7562192603895435
F14.303055
tp230
a(S'Solve_Succeeded'
p231
I10
F1.1926200981949509
F11.154356
tp232
a(S'Solve_Succeeded'
p233
I14
F0.06969256778499469
F15.038618
tp234
a(S'Solve_Succeeded'
p235
I17
F1.3407226359593092
F20.688964
tp236
a(S'Solve_Succeeded'
p237
I10
F0.08514495337844005
F10.948194
tp238
a(S'Solve_Succeeded'
p239
I12
F0.29347670670741466
F12.872108
tp240
a(S'Solve_Succeeded'
p241
I13
F12.233805978834566
F14.316791
tp242
a(S'Solve_Succeeded'
p243
I10
F0.836745407100945
F10.951347
tp244
a(S'Solve_Succeeded'
p245
I12
F0.2105207228102055
F12.60973
tp246
a(S'Solve_Succeeded'
p247
I11
F0.6448604772863653
F11.900364
tp248
a(S'Solve_Succeeded'
p249
I10
F0.6825281662275539
F10.788805
tp250
a(S'Solve_Succeeded'
p251
I12
F9.759172766113204
F12.606476
tp252
a(S'Solve_Succeeded'
p253
I13
F0.054880558578439854
F14.246101
tp254
a(S'Solve_Succeeded'
p255
I12
F0.32485699340517565
F12.758952
tp256
a(S'Solve_Succeeded'
p257
I18
F0.4986011523929669
F17.823752
tp258
a(S'Solve_Succeeded'
p259
I13
F0.2846398844805813
F13.273565
tp260
a(S'Solve_Succeeded'
p261
I26
F1.1479787124991185
F37.721241
tp262
a(S'Solve_Succeeded'
p263
I24
F0.39932060869438984
F30.974277
tp264
a(S'Solve_Succeeded'
p265
I18
F1.0042776478577153
F18.545974
tp266
a(S'Solve_Succeeded'
p267
I19
F8.05995309487283
F22.659325
tp268
a(S'Solve_Succeeded'
p269
I20
F1.6268544129218638
F27.688001
tp270
a(S'Solve_Succeeded'
p271
I9
F1.2308717732525873
F10.125224
tp272
a(S'Solve_Succeeded'
p273
I18
F0.9110516136154906
F19.618836
tp274
a(g9
I61
F0.0
F122.262431
tp275
a(S'Solve_Succeeded'
p276
I9
F0.23318637707542955
F10.393626
tp277
a(S'Solve_Succeeded'
p278
I11
F1.4060050300422868
F12.177196
tp279
a(S'Solve_Succeeded'
p280
I12
F0.31700663323511175
F12.71948
tp281
a(S'Solve_Succeeded'
p282
I10
F0.5436206642093299
F11.018575
tp283
a(S'Solve_Succeeded'
p284
I12
F4.598982096138606
F13.438386
tp285
a(g9
I40
F0.0
F120.331787
tp286
a(g9
I73
F0.0
F120.985632
tp287
a(S'Solve_Succeeded'
p288
I14
F1.410016127654546
F14.512171
tp289
a(S'Solve_Succeeded'
p290
I11
F0.09801294227859465
F12.067878
tp291
a(S'Solve_Succeeded'
p292
I12
F0.08233892409539154
F12.691054
tp293
a(S'Solve_Succeeded'
p294
I14
F0.6036984717444466
F14.527476
tp295
a(S'Solve_Succeeded'
p296
I23
F0.5275352260209876
F34.654107
tp297
asS'0'
p298
(lp299
(g9
I50
F0.0
F123.150021
tp300
a(g9
I45
F0.0
F121.808461
tp301
a(g9
I39
F0.0
F120.407684
tp302
a(g9
I39
F0.0
F120.983345
tp303
a(g9
I41
F0.0
F120.1711
tp304
a(g9
I46
F0.0
F120.767955
tp305
a(g9
I49
F0.0
F120.429015
tp306
a(g9
I44
F0.0
F121.405971
tp307
a(g9
I48
F0.0
F121.984971
tp308
a(g9
I43
F0.0
F121.463338
tp309
a(g9
I26
F0.0
F120.418138
tp310
a(g9
I32
F0.0
F120.476726
tp311
a(g9
I40
F0.0
F120.244867
tp312
a(g9
I48
F0.0
F120.976469
tp313
a(g9
I41
F0.0
F120.578842
tp314
a(g9
I45
F0.0
F121.492832
tp315
a(g9
I44
F0.0
F123.149296
tp316
a(g9
I43
F0.0
F122.610173
tp317
a(g9
I53
F0.0
F120.533416
tp318
a(g9
I41
F0.0
F120.333665
tp319
a(g9
I62
F0.0
F121.225393
tp320
a(g9
I41
F0.0
F122.465228
tp321
a(g9
I40
F0.0
F121.181972
tp322
a(g9
I43
F0.0
F122.071993
tp323
a(g9
I48
F0.0
F120.572821
tp324
a(g9
I30
F0.0
F120.703708
tp325
a(g9
I39
F0.0
F120.143824
tp326
a(g9
I45
F0.0
F121.199244
tp327
a(g9
I33
F0.0
F120.718262
tp328
a(g9
I43
F0.0
F121.482237
tp329
a(g9
I42
F0.0
F120.886455
tp330
a(g9
I24
F0.0
F120.343749
tp331
a(g9
I42
F0.0
F121.594176
tp332
a(g9
I50
F0.0
F122.535633
tp333
a(g9
I37
F0.0
F123.053924
tp334
a(g9
I46
F0.0
F121.372015
tp335
a(g9
I42
F0.0
F120.329553
tp336
a(g9
I41
F0.0
F120.84979
tp337
a(g9
I33
F0.0
F120.626199
tp338
a(g9
I40
F0.0
F121.280785
tp339
a(g9
I40
F0.0
F120.752902
tp340
a(g9
I39
F0.0
F121.483405
tp341
a(g9
I36
F0.0
F121.456935
tp342
a(g9
I39
F0.0
F120.605486
tp343
a(g9
I45
F0.0
F121.807891
tp344
a(g9
I41
F0.0
F120.152467
tp345
a(g9
I48
F0.0
F120.583457
tp346
a(g9
I45
F0.0
F122.173584
tp347
a(g9
I42
F0.0
F120.599068
tp348
a(g9
I24
F0.0
F121.901995
tp349
asS'2.05'
p350
(lp351
(S'Solve_Succeeded'
p352
I14
F2.272796804523132
F5.786155
tp353
a(S'Solve_Succeeded'
p354
I15
F1.7267252934701154
F7.609731
tp355
a(g9
I47
F0.0
F120.576457
tp356
a(S'Solve_Succeeded'
p357
I14
F0.2807902231611856
F6.067873
tp358
a(S'Solve_Succeeded'
p359
I18
F0.46624862739748646
F7.386498
tp360
a(S'Solve_Succeeded'
p361
I13
F1.4591890609809015
F6.004485
tp362
a(S'Solve_Succeeded'
p363
I16
F1.1965899519348266
F6.918877
tp364
a(S'Solve_Succeeded'
p365
I40
F0.08043807688111826
F23.163074
tp366
a(S'Solve_Succeeded'
p367
I14
F0.3213781528486149
F5.81136
tp368
a(S'Solve_Succeeded'
p369
I15
F0.4628369488567808
F8.589984
tp370
a(S'Solve_Succeeded'
p371
I14
F0.5099099661702333
F5.722108
tp372
a(g9
I14
F0.0
F120.395637
tp373
a(S'Solve_Succeeded'
p374
I12
F2.1699427418113526
F4.956583
tp375
a(g9
I135
F0.0
F121.25726
tp376
a(S'Solve_Succeeded'
p377
I40
F0.7562192602691774
F28.531784
tp378
a(S'Solve_Succeeded'
p379
I12
F1.1926200981925048
F5.416689
tp380
a(S'Solve_Succeeded'
p381
I15
F0.069692567145806
F6.255237
tp382
a(S'Solve_Succeeded'
p383
I17
F1.3407226359594417
F7.634796
tp384
a(S'Solve_Succeeded'
p385
I20
F0.08514495332262817
F8.678596
tp386
a(S'Solve_Succeeded'
p387
I17
F0.29347670671548126
F7.227618
tp388
a(S'Solve_Succeeded'
p389
I22
F12.233805978827224
F10.679043
tp390
a(S'Solve_Succeeded'
p391
I12
F0.8367454071009929
F5.131436
tp392
a(S'Solve_Succeeded'
p393
I13
F0.2105207228135142
F5.378798
tp394
a(S'Solve_Succeeded'
p395
I15
F0.6448604772633827
F6.151729
tp396
a(S'Solve_Succeeded'
p397
I19
F0.6825281662275523
F8.785929
tp398
a(S'Solve_Succeeded'
p399
I15
F9.759172765538773
F6.195866
tp400
a(S'Solve_Succeeded'
p401
I21
F0.05488055857845741
F11.533189
tp402
a(S'Solve_Succeeded'
p403
I14
F0.3248569934057843
F5.750957
tp404
a(S'Solve_Succeeded'
p405
I43
F0.49860115240023156
F28.837516
tp406
a(S'Solve_Succeeded'
p407
I14
F0.28463988448032607
F5.665204
tp408
a(S'Solve_Succeeded'
p409
I15
F1.147978712499045
F6.287429
tp410
a(S'Solve_Succeeded'
p411
I34
F0.39932060869144576
F20.049414
tp412
a(S'Solve_Succeeded'
p413
I42
F1.0042776472961288
F28.620383
tp414
a(g9
I138
F0.0
F120.098934
tp415
a(S'Solve_Succeeded'
p416
I32
F1.6268544125845277
F19.233993
tp417
a(S'Solve_Succeeded'
p418
I11
F1.2308717732480512
F4.722168
tp419
a(S'Solve_Succeeded'
p420
I14
F0.9110516136161089
F6.027517
tp421
a(S'Solve_Succeeded'
p422
I67
F0.9970922429084126
F46.213727
tp423
a(S'Solve_Succeeded'
p424
I12
F0.23318637707574602
F5.598938
tp425
a(S'Solve_Succeeded'
p426
I22
F1.4060050299780726
F11.456543
tp427
a(S'Solve_Succeeded'
p428
I15
F0.31700663323513156
F6.160694
tp429
a(S'Solve_Succeeded'
p430
I13
F0.5436206642084349
F5.509478
tp431
a(S'Solve_Succeeded'
p432
I22
F4.598982096081915
F14.012016
tp433
a(g9
I42
F0.0
F120.180161
tp434
a(S'Solve_Succeeded'
p435
I49
F0.29752927203695184
F33.833599
tp436
a(S'Solve_Succeeded'
p437
I16
F1.4100161276642276
F6.57558
tp438
a(S'Solve_Succeeded'
p439
I31
F0.09801294230280065
F16.839855
tp440
a(S'Solve_Succeeded'
p441
I14
F0.08233892386711325
F6.012607
tp442
a(S'Solve_Succeeded'
p443
I22
F0.6036984717445452
F12.358889
tp444
a(S'Solve_Succeeded'
p445
I21
F0.5275352260208629
F9.672689
tp446
asS'2.20'
p447
(lp448
(S'Solve_Succeeded'
p449
I12
F2.27279680452323
F6.818302
tp450
a(g9
I153
F0.0
F120.800333
tp451
a(g9
I74
F0.0
F120.323042
tp452
a(S'Solve_Succeeded'
p453
I13
F0.2807902250820627
F7.126785
tp454
a(S'Solve_Succeeded'
p455
I18
F0.4662486273754438
F9.74287
tp456
a(S'Solve_Succeeded'
p457
I11
F1.4591890609804297
F6.348934
tp458
a(S'Solve_Succeeded'
p459
I15
F1.1965899520026984
F8.41388
tp460
a(S'Solve_Succeeded'
p461
I11
F0.08043807790216635
F6.3638
tp462
a(S'Solve_Succeeded'
p463
I16
F0.32137815284822446
F10.266667
tp464
a(S'Solve_Succeeded'
p465
I13
F0.46283694890010046
F7.425188
tp466
a(S'Solve_Succeeded'
p467
I12
F0.5099099661665708
F6.778535
tp468
a(g9
I13
F0.0
F120.347846
tp469
a(S'Solve_Succeeded'
p470
I11
F2.169942741839933
F6.221442
tp471
a(S'Solve_Succeeded'
p472
I15
F0.49374297778188614
F8.268852
tp473
a(S'Solve_Succeeded'
p474
I14
F0.7562192602903927
F7.763359
tp475
a(S'Solve_Succeeded'
p476
I10
F1.1926200981962554
F5.785071
tp477
a(S'Solve_Succeeded'
p478
I14
F0.06969256764435741
F7.965646
tp479
a(S'Solve_Succeeded'
p480
I15
F1.3407226359367341
F8.771673
tp481
a(S'Solve_Succeeded'
p482
I10
F0.08514495332413598
F6.00878
tp483
a(S'Solve_Succeeded'
p484
I12
F0.29347670670721326
F6.908121
tp485
a(S'Solve_Succeeded'
p486
I12
F12.233805978879575
F6.92307
tp487
a(S'Solve_Succeeded'
p488
I10
F0.8367454071009832
F5.785105
tp489
a(S'Solve_Succeeded'
p490
I12
F0.210520722810372
F6.831438
tp491
a(S'Solve_Succeeded'
p492
I13
F0.6448604772642346
F7.221616
tp493
a(S'Solve_Succeeded'
p494
I10
F0.6825281662275211
F5.686316
tp495
a(S'Solve_Succeeded'
p496
I12
F9.759172766036475
F6.814694
tp497
a(S'Solve_Succeeded'
p498
I15
F0.05488055856887411
F7.892998
tp499
a(S'Solve_Succeeded'
p500
I12
F0.32485699340569074
F6.750633
tp501
a(S'Solve_Succeeded'
p502
I17
F0.49860115239088093
F9.373214
tp503
a(S'Solve_Succeeded'
p504
I13
F0.28463988448064453
F7.159612
tp505
a(S'Solve_Succeeded'
p506
I17
F1.1479787124989265
F9.591535
tp507
a(S'Solve_Succeeded'
p508
I20
F0.3993206086918954
F14.601342
tp509
a(S'Solve_Succeeded'
p510
I19
F1.0042776473759514
F10.530217
tp511
a(S'Solve_Succeeded'
p512
I15
F8.059953094874086
F8.361639
tp513
a(g9
I120
F0.0
F120.295436
tp514
a(S'Solve_Succeeded'
p515
I9
F1.2308717732577072
F5.320131
tp516
a(S'Solve_Succeeded'
p517
I15
F0.9110516136159909
F8.53836
tp518
a(S'Solve_Succeeded'
p519
I57
F0.9970922429088924
F52.005677
tp520
a(S'Solve_Succeeded'
p521
I9
F0.23318637707430168
F5.45668
tp522
a(S'Solve_Succeeded'
p523
I11
F1.4060050300166722
F6.260007
tp524
a(S'Solve_Succeeded'
p525
I12
F0.3170066332431676
F6.942564
tp526
a(S'Solve_Succeeded'
p527
I13
F0.5436206642084858
F7.364102
tp528
a(g9
I137
F0.0
F120.888593
tp529
a(g9
I46
F0.0
F120.463697
tp530
a(g9
I127
F0.0
F121.138264
tp531
a(S'Solve_Succeeded'
p532
I14
F1.4100161276535417
F7.885334
tp533
a(S'Solve_Succeeded'
p534
I11
F0.0980129422560085
F6.459584
tp535
a(S'Solve_Succeeded'
p536
I12
F0.08233892410173549
F6.712708
tp537
a(S'Solve_Succeeded'
p538
I13
F0.6036984717504511
F7.181654
tp539
a(S'Solve_Succeeded'
p540
I24
F0.5275352260252084
F20.138698
tp541
asS'2.10'
p542
(lp543
(S'Solve_Succeeded'
p544
I11
F2.2727968047058735
F6.113959
tp545
a(g9
I122
F0.0
F120.076526
tp546
a(g9
I67
F0.0
F120.476251
tp547
a(S'Solve_Succeeded'
p548
I13
F0.28079022327860004
F7.07889
tp549
a(S'Solve_Succeeded'
p550
I18
F0.4662486273810918
F9.471878
tp551
a(S'Solve_Succeeded'
p552
I11
F1.4591890609805718
F6.081011
tp553
a(S'Solve_Succeeded'
p554
I15
F1.1965899519404073
F8.140847
tp555
a(S'Solve_Succeeded'
p556
I11
F0.08043807801283757
F6.193417
tp557
a(S'Solve_Succeeded'
p558
I14
F0.3213781528452412
F8.071222
tp559
a(S'Solve_Succeeded'
p560
I13
F0.46283694893767774
F7.097482
tp561
a(S'Solve_Succeeded'
p562
I12
F0.5099099661672608
F6.608675
tp563
a(g9
I10
F0.0
F120.569764
tp564
a(S'Solve_Succeeded'
p565
I11
F2.1699427418565214
F6.071918
tp566
a(S'Solve_Succeeded'
p567
I15
F0.49374297778479337
F8.081818
tp568
a(S'Solve_Succeeded'
p569
I14
F0.7562192602693982
F7.641352
tp570
a(S'Solve_Succeeded'
p571
I10
F1.1926200981941129
F5.831803
tp572
a(S'Solve_Succeeded'
p573
I14
F0.06969256725590874
F7.935838
tp574
a(S'Solve_Succeeded'
p575
I19
F1.34072263595668
F11.137511
tp576
a(S'Solve_Succeeded'
p577
I10
F0.08514495332380893
F5.740892
tp578
a(S'Solve_Succeeded'
p579
I12
F0.2934767067070774
F6.603454
tp580
a(S'Solve_Succeeded'
p581
I12
F12.233805978895564
F6.569313
tp582
a(S'Solve_Succeeded'
p583
I9
F0.836745407100972
F5.298636
tp584
a(S'Solve_Succeeded'
p585
I12
F0.21052072281050466
F6.540618
tp586
a(S'Solve_Succeeded'
p587
I13
F0.6448604772632903
F7.187944
tp588
a(S'Solve_Succeeded'
p589
I10
F0.6825281662275455
F5.572395
tp590
a(S'Solve_Succeeded'
p591
I12
F9.75917276583901
F6.581341
tp592
a(S'Solve_Succeeded'
p593
I12
F0.054880558547124515
F6.571397
tp594
a(S'Solve_Succeeded'
p595
I12
F0.32485699340534624
F6.598779
tp596
a(S'Solve_Succeeded'
p597
I17
F0.49860115239630437
F8.952566
tp598
a(S'Solve_Succeeded'
p599
I13
F0.28463988448071
F6.97731
tp600
a(S'Solve_Succeeded'
p601
I28
F1.1479787124990464
F19.767767
tp602
a(S'Solve_Succeeded'
p603
I24
F0.39932060870447905
F16.81574
tp604
a(S'Solve_Succeeded'
p605
I18
F1.004277647774527
F9.823852
tp606
a(S'Solve_Succeeded'
p607
I15
F8.059953094874363
F8.205061
tp608
a(S'Solve_Succeeded'
p609
I14
F1.6268544126044087
F7.3933
tp610
a(S'Solve_Succeeded'
p611
I9
F1.2308717732521934
F5.262492
tp612
a(S'Solve_Succeeded'
p613
I16
F0.9110516136160819
F8.794555
tp614
a(g9
I130
F0.0
F120.233427
tp615
a(S'Solve_Succeeded'
p616
I9
F0.23318637707535145
F5.745002
tp617
a(S'Solve_Succeeded'
p618
I11
F1.4060050299789868
F6.159635
tp619
a(S'Solve_Succeeded'
p620
I11
F0.31700663326788225
F6.745816
tp621
a(S'Solve_Succeeded'
p622
I13
F0.5436206642086985
F7.144572
tp623
a(S'Solve_Succeeded'
p624
I31
F4.598982096254836
F26.68027
tp625
a(S'Invalid_Number_Detected'
p626
I41
F0.0
F47.905095
tp627
a(S'Solve_Succeeded'
p628
I15
F0.2975292720827395
F9.598132
tp629
a(S'Solve_Succeeded'
p630
I14
F1.4100161276589331
F7.669134
tp631
a(S'Solve_Succeeded'
p632
I12
F0.09801294225549294
F6.700409
tp633
a(S'Solve_Succeeded'
p634
I12
F0.08233892407153937
F6.643584
tp635
a(S'Solve_Succeeded'
p636
I13
F0.6036984717450666
F7.25842
tp637
a(S'Solve_Succeeded'
p638
I23
F0.527535226024789
F18.285493
tp639
ass.