(dp0
S'dist4'
p1
(dp2
S'1'
p3
(lp4
(S'Solve_Succeeded'
p5
I11
F2.2727968047903557
F11.643482
tp6
a(S'Solve_Succeeded'
p7
I15
F1.7267252934702315
F16.504553
tp8
a(S'Maximum_CPU_Time_Exceeded'
p9
I60
F0.0
F60.467846
tp10
a(S'Solve_Succeeded'
p11
I14
F0.28079022316228497
F14.221359
tp12
a(S'Solve_Succeeded'
p13
I14
F0.4662486273906066
F14.182018
tp14
a(S'Solve_Succeeded'
p15
I11
F1.4591890609804878
F11.770296
tp16
a(S'Solve_Succeeded'
p17
I15
F1.1965899520438592
F15.382368
tp18
a(S'Solve_Succeeded'
p19
I11
F0.08043807767709897
F11.736137
tp20
a(S'Solve_Succeeded'
p21
I15
F0.32137815284028437
F18.216907
tp22
a(S'Solve_Succeeded'
p23
I13
F0.4628369496854452
F13.474238
tp24
a(S'Solve_Succeeded'
p25
I11
F0.5099099661605101
F11.654087
tp26
a(g9
I13
F0.0
F60.107044
tp27
a(S'Solve_Succeeded'
p28
I11
F2.169942741834298
F11.616294
tp29
a(S'Solve_Succeeded'
p30
I16
F0.49374297778326565
F16.130452
tp31
a(S'Solve_Succeeded'
p32
I14
F0.7562192603895435
F14.260199
tp33
a(S'Solve_Succeeded'
p34
I10
F1.1926200981949509
F10.896021
tp35
a(S'Solve_Succeeded'
p36
I14
F0.06969256778499469
F14.432986
tp37
a(S'Solve_Succeeded'
p38
I17
F1.3407226359593092
F19.075227
tp39
a(S'Solve_Succeeded'
p40
I10
F0.08514495337844005
F10.910228
tp41
a(S'Solve_Succeeded'
p42
I12
F0.29347670670741466
F12.731959
tp43
a(S'Solve_Succeeded'
p44
I13
F12.233805978834566
F14.294451
tp45
a(S'Solve_Succeeded'
p46
I10
F0.836745407100945
F10.869473
tp47
a(S'Solve_Succeeded'
p48
I12
F0.2105207228102055
F12.582343
tp49
a(S'Solve_Succeeded'
p50
I11
F0.6448604772863653
F12.119247
tp51
a(S'Solve_Succeeded'
p52
I10
F0.6825281662275539
F10.843403
tp53
a(S'Solve_Succeeded'
p54
I12
F9.759172766113204
F12.58569
tp55
a(S'Solve_Succeeded'
p56
I13
F0.054880558578439854
F14.323852
tp57
a(S'Solve_Succeeded'
p58
I12
F0.32485699340517565
F12.592937
tp59
a(S'Solve_Succeeded'
p60
I18
F0.4986011523929669
F17.972385
tp61
a(S'Solve_Succeeded'
p62
I13
F0.2846398844805813
F13.399242
tp63
a(S'Solve_Succeeded'
p64
I26
F1.1479787124991185
F36.379276
tp65
a(S'Solve_Succeeded'
p66
I24
F0.39932060869438984
F30.398145
tp67
a(S'Solve_Succeeded'
p68
I18
F1.0042776478577153
F17.953249
tp69
a(S'Solve_Succeeded'
p70
I19
F8.05995309487283
F22.090782
tp71
a(S'Solve_Succeeded'
p72
I20
F1.6268544129218638
F27.440376
tp73
a(S'Solve_Succeeded'
p74
I9
F1.2308717732525873
F9.981913
tp75
a(S'Solve_Succeeded'
p76
I18
F0.9110516136154906
F19.18013
tp77
a(g9
I32
F0.0
F62.495454
tp78
a(S'Solve_Succeeded'
p79
I9
F0.23318637707542955
F10.05981
tp80
a(S'Solve_Succeeded'
p81
I11
F1.4060050300422868
F11.711157
tp82
a(S'Solve_Succeeded'
p83
I12
F0.31700663323511175
F12.520507
tp84
a(S'Solve_Succeeded'
p85
I10
F0.5436206642093299
F11.0131
tp86
a(S'Solve_Succeeded'
p87
I12
F4.598982096138606
F13.380476
tp88
a(g9
I40
F0.0
F60.33203
tp89
a(g9
I31
F0.0
F60.066457
tp90
a(S'Solve_Succeeded'
p91
I14
F1.410016127654546
F14.322456
tp92
a(S'Solve_Succeeded'
p93
I11
F0.09801294227859465
F11.983826
tp94
a(S'Solve_Succeeded'
p95
I12
F0.08233892409539154
F12.55999
tp96
a(S'Solve_Succeeded'
p97
I14
F0.6036984717444466
F14.269605
tp98
a(S'Solve_Succeeded'
p99
I23
F0.5275352260209876
F34.519458
tp100
asS'0'
p101
(lp102
(g9
I19
F0.0
F62.951246
tp103
a(g9
I23
F0.0
F62.969442
tp104
a(g9
I22
F0.0
F62.176518
tp105
a(g9
I19
F0.0
F61.013407
tp106
a(g9
I22
F0.0
F63.3616
tp107
a(g9
I23
F0.0
F62.018079
tp108
a(g9
I22
F0.0
F61.035178
tp109
a(g9
I21
F0.0
F60.622155
tp110
a(g9
I23
F0.0
F60.714281
tp111
a(g9
I23
F0.0
F63.707058
tp112
a(g9
I21
F0.0
F62.431555
tp113
a(g9
I20
F0.0
F61.740192
tp114
a(g9
I19
F0.0
F60.940395
tp115
a(g9
I22
F0.0
F61.985237
tp116
a(g9
I21
F0.0
F62.033143
tp117
a(g9
I23
F0.0
F63.349473
tp118
a(g9
I21
F0.0
F61.661179
tp119
a(g9
I22
F0.0
F62.177095
tp120
a(g9
I22
F0.0
F60.727908
tp121
a(g9
I20
F0.0
F60.532173
tp122
a(g9
I23
F0.0
F60.415879
tp123
a(g9
I23
F0.0
F61.875047
tp124
a(g9
I22
F0.0
F61.484017
tp125
a(g9
I22
F0.0
F61.083715
tp126
a(g9
I23
F0.0
F61.621565
tp127
a(g9
I21
F0.0
F60.658287
tp128
a(g9
I20
F0.0
F61.437127
tp129
a(g9
I24
F0.0
F62.320823
tp130
a(g9
I22
F0.0
F60.901107
tp131
a(g9
I22
F0.0
F61.432208
tp132
a(g9
I22
F0.0
F62.786455
tp133
a(g9
I20
F0.0
F60.394939
tp134
a(g9
I25
F0.0
F61.936026
tp135
a(g9
I23
F0.0
F62.761523
tp136
a(g9
I21
F0.0
F61.847992
tp137
a(g9
I23
F0.0
F63.17729
tp138
a(g9
I22
F0.0
F61.999746
tp139
a(g9
I22
F0.0
F60.700413
tp140
a(g9
I23
F0.0
F63.215185
tp141
a(g9
I21
F0.0
F62.284381
tp142
a(g9
I21
F0.0
F61.170424
tp143
a(g9
I22
F0.0
F61.375461
tp144
a(g9
I21
F0.0
F61.657071
tp145
a(g9
I22
F0.0
F61.676821
tp146
a(g9
I22
F0.0
F61.132572
tp147
a(g9
I26
F0.0
F62.276712
tp148
a(g9
I26
F0.0
F60.29851
tp149
a(g9
I20
F0.0
F60.420204
tp150
a(g9
I21
F0.0
F60.295746
tp151
a(g9
I21
F0.0
F61.265254
tp152
asS'2.05'
p153
(lp154
(S'Solve_Succeeded'
p155
I14
F2.272796804523132
F5.818853
tp156
a(S'Solve_Succeeded'
p157
I15
F1.7267252934701154
F7.7103
tp158
a(g9
I47
F0.0
F60.251634
tp159
a(S'Solve_Succeeded'
p160
I14
F0.2807902231611856
F6.062313
tp161
a(S'Solve_Succeeded'
p162
I18
F0.46624862739748646
F7.24555
tp163
a(S'Solve_Succeeded'
p164
I13
F1.4591890609809015
F6.065334
tp165
a(S'Solve_Succeeded'
p166
I16
F1.1965899519348266
F6.902195
tp167
a(S'Solve_Succeeded'
p168
I40
F0.08043807688111826
F23.115655
tp169
a(S'Solve_Succeeded'
p170
I14
F0.3213781528486149
F5.830193
tp171
a(S'Solve_Succeeded'
p172
I15
F0.4628369488567808
F8.568621
tp173
a(S'Solve_Succeeded'
p174
I14
F0.5099099661702333
F5.694186
tp175
a(g9
I14
F0.0
F60.208056
tp176
a(S'Solve_Succeeded'
p177
I12
F2.1699427418113526
F4.953331
tp178
a(g9
I61
F0.0
F60.281698
tp179
a(S'Solve_Succeeded'
p180
I40
F0.7562192602691774
F28.527078
tp181
a(S'Solve_Succeeded'
p182
I12
F1.1926200981925048
F5.342872
tp183
a(S'Solve_Succeeded'
p184
I15
F0.069692567145806
F6.198281
tp185
a(S'Solve_Succeeded'
p186
I17
F1.3407226359594417
F7.227318
tp187
a(S'Solve_Succeeded'
p188
I20
F0.08514495332262817
F8.728687
tp189
a(S'Solve_Succeeded'
p190
I17
F0.29347670671548126
F7.200095
tp191
a(S'Solve_Succeeded'
p192
I22
F12.233805978827224
F10.658641
tp193
a(S'Solve_Succeeded'
p194
I12
F0.8367454071009929
F5.114705
tp195
a(S'Solve_Succeeded'
p196
I13
F0.2105207228135142
F5.459572
tp197
a(S'Solve_Succeeded'
p198
I15
F0.6448604772633827
F6.241466
tp199
a(S'Solve_Succeeded'
p200
I19
F0.6825281662275523
F9.006719
tp201
a(S'Solve_Succeeded'
p202
I15
F9.759172765538773
F6.386139
tp203
a(S'Solve_Succeeded'
p204
I21
F0.05488055857845741
F11.585999
tp205
a(S'Solve_Succeeded'
p206
I14
F0.3248569934057843
F5.758436
tp207
a(S'Solve_Succeeded'
p208
I43
F0.49860115240023156
F29.113138
tp209
a(S'Solve_Succeeded'
p210
I14
F0.28463988448032607
F5.772094
tp211
a(S'Solve_Succeeded'
p212
I15
F1.147978712499045
F6.058796
tp213
a(S'Solve_Succeeded'
p214
I34
F0.39932060869144576
F19.626696
tp215
a(S'Solve_Succeeded'
p216
I42
F1.0042776472961288
F28.045138
tp217
a(g9
I80
F0.0
F60.169442
tp218
a(S'Solve_Succeeded'
p219
I32
F1.6268544125845277
F19.157624
tp220
a(S'Solve_Succeeded'
p221
I11
F1.2308717732480512
F4.701089
tp222
a(S'Solve_Succeeded'
p223
I14
F0.9110516136161089
F6.072651
tp224
a(S'Solve_Succeeded'
p225
I67
F0.9970922429084126
F45.806147
tp226
a(S'Solve_Succeeded'
p227
I12
F0.23318637707574602
F5.510427
tp228
a(S'Solve_Succeeded'
p229
I22
F1.4060050299780726
F11.436795
tp230
a(S'Solve_Succeeded'
p231
I15
F0.31700663323513156
F6.207882
tp232
a(S'Solve_Succeeded'
p233
I13
F0.5436206642084349
F5.501818
tp234
a(S'Solve_Succeeded'
p235
I22
F4.598982096081915
F14.030368
tp236
a(g9
I42
F0.0
F60.335552
tp237
a(S'Solve_Succeeded'
p238
I49
F0.29752927203695184
F33.112572
tp239
a(S'Solve_Succeeded'
p240
I16
F1.4100161276642276
F6.541935
tp241
a(S'Solve_Succeeded'
p242
I31
F0.09801294230280065
F16.755118
tp243
a(S'Solve_Succeeded'
p244
I14
F0.08233892386711325
F6.016972
tp245
a(S'Solve_Succeeded'
p246
I22
F0.6036984717445452
F12.350153
tp247
a(S'Solve_Succeeded'
p248
I21
F0.5275352260208629
F9.754254
tp249
asS'2.20'
p250
(lp251
(S'Solve_Succeeded'
p252
I12
F2.27279680452323
F6.830581
tp253
a(g9
I72
F0.0
F61.105903
tp254
a(g9
I74
F0.0
F60.156034
tp255
a(S'Solve_Succeeded'
p256
I13
F0.2807902250820627
F7.064307
tp257
a(S'Solve_Succeeded'
p258
I18
F0.4662486273754438
F9.516062
tp259
a(S'Solve_Succeeded'
p260
I11
F1.4591890609804297
F6.284615
tp261
a(S'Solve_Succeeded'
p262
I15
F1.1965899520026984
F8.310188
tp263
a(S'Solve_Succeeded'
p264
I11
F0.08043807790216635
F6.311004
tp265
a(S'Solve_Succeeded'
p266
I16
F0.32137815284822446
F10.151214
tp267
a(S'Solve_Succeeded'
p268
I13
F0.46283694890010046
F7.311242
tp269
a(S'Solve_Succeeded'
p270
I12
F0.5099099661665708
F6.739459
tp271
a(g9
I13
F0.0
F60.25448
tp272
a(S'Solve_Succeeded'
p273
I11
F2.169942741839933
F6.123316
tp274
a(S'Solve_Succeeded'
p275
I15
F0.49374297778188614
F8.250344
tp276
a(S'Solve_Succeeded'
p277
I14
F0.7562192602903927
F7.735648
tp278
a(S'Solve_Succeeded'
p279
I10
F1.1926200981962554
F5.620342
tp280
a(S'Solve_Succeeded'
p281
I14
F0.06969256764435741
F7.617677
tp282
a(S'Solve_Succeeded'
p283
I15
F1.3407226359367341
F8.328729
tp284
a(S'Solve_Succeeded'
p285
I10
F0.08514495332413598
F5.838886
tp286
a(S'Solve_Succeeded'
p287
I12
F0.29347670670721326
F6.790493
tp288
a(S'Solve_Succeeded'
p289
I12
F12.233805978879575
F6.880376
tp290
a(S'Solve_Succeeded'
p291
I10
F0.8367454071009832
F5.671128
tp292
a(S'Solve_Succeeded'
p293
I12
F0.210520722810372
F6.850034
tp294
a(S'Solve_Succeeded'
p295
I13
F0.6448604772642346
F7.218168
tp296
a(S'Solve_Succeeded'
p297
I10
F0.6825281662275211
F5.730407
tp298
a(S'Solve_Succeeded'
p299
I12
F9.759172766036475
F6.940285
tp300
a(S'Solve_Succeeded'
p301
I15
F0.05488055856887411
F7.9476
tp302
a(S'Solve_Succeeded'
p303
I12
F0.32485699340569074
F6.776929
tp304
a(S'Solve_Succeeded'
p305
I17
F0.49860115239088093
F9.386882
tp306
a(S'Solve_Succeeded'
p307
I13
F0.28463988448064453
F7.178219
tp308
a(S'Solve_Succeeded'
p309
I17
F1.1479787124989265
F9.568612
tp310
a(S'Solve_Succeeded'
p311
I20
F0.3993206086918954
F14.301819
tp312
a(S'Solve_Succeeded'
p313
I19
F1.0042776473759514
F10.268509
tp314
a(S'Solve_Succeeded'
p315
I15
F8.059953094874086
F8.301588
tp316
a(g9
I59
F0.0
F60.305955
tp317
a(S'Solve_Succeeded'
p318
I9
F1.2308717732577072
F5.359408
tp319
a(S'Solve_Succeeded'
p320
I15
F0.9110516136159909
F8.305906
tp321
a(S'Solve_Succeeded'
p322
I57
F0.9970922429088924
F50.957047
tp323
a(S'Solve_Succeeded'
p324
I9
F0.23318637707430168
F5.366702
tp325
a(S'Solve_Succeeded'
p326
I11
F1.4060050300166722
F6.147738
tp327
a(S'Solve_Succeeded'
p328
I12
F0.3170066332431676
F6.761544
tp329
a(S'Solve_Succeeded'
p330
I13
F0.5436206642084858
F7.233511
tp331
a(g9
I77
F0.0
F60.445878
tp332
a(g9
I46
F0.0
F60.258647
tp333
a(g9
I69
F0.0
F60.075515
tp334
a(S'Solve_Succeeded'
p335
I14
F1.4100161276535417
F7.794472
tp336
a(S'Solve_Succeeded'
p337
I11
F0.0980129422560085
F6.399324
tp338
a(S'Solve_Succeeded'
p339
I12
F0.08233892410173549
F6.715086
tp340
a(S'Solve_Succeeded'
p341
I13
F0.6036984717504511
F7.080799
tp342
a(S'Solve_Succeeded'
p343
I24
F0.5275352260252084
F20.237202
tp344
asS'2.03'
p345
(lp346
(S'Solve_Succeeded'
p347
I16
F2.272796804523208
F7.104851
tp348
a(S'Solve_Succeeded'
p349
I17
F1.7267252934701391
F7.478214
tp350
a(g9
I62
F0.0
F60.29607
tp351
a(S'Solve_Succeeded'
p352
I16
F0.28079022316112173
F6.726434
tp353
a(S'Solve_Succeeded'
p354
I19
F0.4662486273974436
F7.71961
tp355
a(S'Solve_Succeeded'
p356
I15
F1.459189060980776
F6.356478
tp357
a(S'Solve_Succeeded'
p358
I17
F1.19658995193467
F7.518703
tp359
a(S'Solve_Succeeded'
p360
I18
F0.08043807688108469
F7.493043
tp361
a(S'Solve_Succeeded'
p362
I15
F0.32137815284860644
F6.228642
tp363
a(S'Solve_Succeeded'
p364
I16
F0.46283694885667886
F7.16606
tp365
a(S'Solve_Succeeded'
p366
I16
F0.5099099661702358
F7.113099
tp367
a(g9
I9
F0.0
F60.392067
tp368
a(S'Solve_Succeeded'
p369
I15
F2.1699427418113943
F6.292568
tp370
a(S'Solve_Succeeded'
p371
I28
F0.4937429777848948
F15.66478
tp372
a(S'Solve_Succeeded'
p373
I15
F0.7562192602691129
F6.428275
tp374
a(S'Solve_Succeeded'
p375
I15
F1.1926200981924393
F6.323283
tp376
a(S'Solve_Succeeded'
p377
I16
F0.069692567145821
F6.806707
tp378
a(S'Solve_Succeeded'
p379
I17
F1.3407226359593356
F7.805927
tp380
a(S'Solve_Succeeded'
p381
I14
F0.0851449533225878
F6.081123
tp382
a(S'Solve_Succeeded'
p383
I14
F0.29347670671542897
F5.996213
tp384
a(S'Solve_Succeeded'
p385
I16
F12.233805978827297
F7.484377
tp386
a(S'Solve_Succeeded'
p387
I16
F0.8367454071009509
F7.232857
tp388
a(S'Solve_Succeeded'
p389
I14
F0.210520722813463
F6.046854
tp390
a(S'Solve_Succeeded'
p391
I15
F0.6448604772633547
F6.742782
tp392
a(S'Solve_Succeeded'
p393
I15
F0.682528166227579
F6.823976
tp394
a(S'Solve_Succeeded'
p395
I17
F9.759172765538773
F7.213975
tp396
a(S'Solve_Succeeded'
p397
I18
F0.054880558578464855
F7.569054
tp398
a(S'Solve_Succeeded'
p399
I16
F0.324856993405781
F7.014074
tp400
a(S'Solve_Succeeded'
p401
I20
F0.49860115240016106
F8.32385
tp402
a(S'Solve_Succeeded'
p403
I15
F0.2846398844804175
F6.585078
tp404
a(S'Solve_Succeeded'
p405
I27
F1.1479787124990715
F13.82957
tp406
a(S'Solve_Succeeded'
p407
I24
F0.3993206086914203
F11.635099
tp408
a(S'Solve_Succeeded'
p409
I21
F1.004277647296122
F9.066582
tp410
a(g9
I69
F0.0
F60.513232
tp411
a(S'Solve_Succeeded'
p412
I16
F1.6268544125844606
F6.650325
tp413
a(S'Solve_Succeeded'
p414
I13
F1.2308717732480208
F5.61475
tp415
a(S'Solve_Succeeded'
p416
I15
F0.9110516136161539
F7.047061
tp417
a(S'Solve_Succeeded'
p418
I49
F0.9970922429087142
F28.156202
tp419
a(S'Solve_Succeeded'
p420
I16
F0.23318637707571727
F7.276304
tp421
a(S'Solve_Succeeded'
p422
I15
F1.406005029977996
F6.728204
tp423
a(S'Solve_Succeeded'
p424
I17
F0.31700663323506584
F7.490793
tp425
a(S'Solve_Succeeded'
p426
I16
F0.5436206642084598
F6.712466
tp427
a(S'Solve_Succeeded'
p428
I27
F4.598982096081793
F16.765444
tp429
a(g9
I51
F0.0
F60.247013
tp430
a(S'Solve_Succeeded'
p431
I19
F0.2975292720370143
F8.25314
tp432
a(S'Solve_Succeeded'
p433
I17
F1.410016127664378
F7.101189
tp434
a(S'Solve_Succeeded'
p435
I17
F0.09801294230277052
F7.269399
tp436
a(S'Solve_Succeeded'
p437
I16
F0.0823389238671879
F7.059623
tp438
a(S'Solve_Succeeded'
p439
I16
F0.6036984717444187
F6.686947
tp440
a(S'Solve_Succeeded'
p441
I26
F0.5275352260209297
F16.111938
tp442
asS'2.02'
p443
(lp444
(S'Solve_Succeeded'
p445
I14
F2.2727968045294276
F7.987781
tp446
a(S'Solve_Succeeded'
p447
I15
F1.726725293470339
F8.754644
tp448
a(g9
I76
F0.0
F60.513176
tp449
a(S'Solve_Succeeded'
p450
I14
F0.2807902231707478
F7.825465
tp451
a(S'Solve_Succeeded'
p452
I34
F0.4662486273774135
F27.951899
tp453
a(S'Solve_Succeeded'
p454
I11
F1.459189060980813
F6.582456
tp455
a(S'Solve_Succeeded'
p456
I16
F1.1965899519349155
F8.934173
tp457
a(S'Solve_Succeeded'
p458
I14
F0.08043807704670529
F9.929215
tp459
a(S'Solve_Succeeded'
p460
I15
F0.32137815284870563
F8.424908
tp461
a(S'Solve_Succeeded'
p462
I14
F0.4628369488569455
F8.00291
tp463
a(S'Solve_Succeeded'
p464
I12
F0.5099099661656501
F6.90079
tp465
a(g9
I10
F0.0
F60.455384
tp466
a(S'Solve_Succeeded'
p467
I11
F2.1699427418144888
F6.455054
tp468
a(S'Solve_Succeeded'
p469
I15
F0.4937429777799518
F10.339522
tp470
a(S'Solve_Succeeded'
p471
I14
F0.7562192602910018
F8.463186
tp472
a(S'Solve_Succeeded'
p473
I10
F1.1926200981933934
F6.144058
tp474
a(S'Solve_Succeeded'
p475
I14
F0.06969256767967004
F7.89415
tp476
a(S'Solve_Succeeded'
p477
I16
F1.3407226359548148
F9.611692
tp478
a(S'Solve_Succeeded'
p479
I11
F0.08514495332566545
F6.482367
tp480
a(S'Solve_Succeeded'
p481
I13
F0.29347670671122167
F7.43342
tp482
a(S'Solve_Succeeded'
p483
I12
F12.23380597906777
F7.3852
tp484
a(S'Solve_Succeeded'
p485
I10
F0.8367454070910264
F5.919297
tp486
a(S'Solve_Succeeded'
p487
I12
F0.210520722813449
F7.080315
tp488
a(S'Solve_Succeeded'
p489
I13
F0.6448604772681604
F7.517779
tp490
a(S'Solve_Succeeded'
p491
I10
F0.6825281662275524
F6.162398
tp492
a(S'Solve_Succeeded'
p493
I14
F9.75917276553926
F8.012399
tp494
a(S'Solve_Succeeded'
p495
I12
F0.0548805585780041
F7.021683
tp496
a(S'Solve_Succeeded'
p497
I14
F0.32485699340569774
F8.135498
tp498
a(S'Solve_Succeeded'
p499
I16
F0.4986011523934645
F9.106647
tp500
a(S'Solve_Succeeded'
p501
I12
F0.2846398844814066
F7.083147
tp502
a(S'Solve_Succeeded'
p503
I26
F1.1479787125111078
F21.82255
tp504
a(S'Solve_Succeeded'
p505
I21
F0.3993206086922034
F13.552251
tp506
a(S'Solve_Succeeded'
p507
I20
F1.004277647674427
F12.695647
tp508
a(g9
I57
F0.0
F60.901047
tp509
a(S'Solve_Succeeded'
p510
I18
F1.6788563790134647
F14.581213
tp511
a(S'Solve_Succeeded'
p512
I9
F1.2308717732497176
F5.509044
tp513
a(S'Solve_Succeeded'
p514
I13
F0.9110516136160044
F7.864882
tp515
a(g9
I61
F0.0
F61.153021
tp516
a(S'Solve_Succeeded'
p517
I9
F0.23318637707575535
F5.545133
tp518
a(S'Solve_Succeeded'
p519
I10
F1.406005030097163
F6.206623
tp520
a(S'Solve_Succeeded'
p521
I12
F0.3170066333218758
F7.013583
tp522
a(S'Solve_Succeeded'
p523
I12
F0.5436206642578628
F6.968044
tp524
a(S'Solve_Succeeded'
p525
I11
F4.598982096081987
F6.936176
tp526
a(g9
I68
F0.0
F60.395759
tp527
a(g9
I54
F0.0
F60.924097
tp528
a(S'Solve_Succeeded'
p529
I17
F1.4100161276638254
F9.644695
tp530
a(S'Solve_Succeeded'
p531
I13
F0.09801294229886096
F7.584293
tp532
a(S'Solve_Succeeded'
p533
I12
F0.08233892387049327
F7.038055
tp534
a(S'Solve_Succeeded'
p535
I12
F0.6036984717444699
F6.856494
tp536
a(S'Solve_Succeeded'
p537
I22
F0.5275352260209506
F18.791375
tp538
asS'2.10'
p539
(lp540
(S'Solve_Succeeded'
p541
I11
F2.2727968047058735
F6.158762
tp542
a(g9
I64
F0.0
F60.913554
tp543
a(g9
I67
F0.0
F60.336224
tp544
a(S'Solve_Succeeded'
p545
I13
F0.28079022327860004
F7.042558
tp546
a(S'Solve_Succeeded'
p547
I18
F0.4662486273810918
F9.377915
tp548
a(S'Solve_Succeeded'
p549
I11
F1.4591890609805718
F6.037811
tp550
a(S'Solve_Succeeded'
p551
I15
F1.1965899519404073
F8.034613
tp552
a(S'Solve_Succeeded'
p553
I11
F0.08043807801283757
F6.177215
tp554
a(S'Solve_Succeeded'
p555
I14
F0.3213781528452412
F7.921326
tp556
a(S'Solve_Succeeded'
p557
I13
F0.46283694893767774
F7.088281
tp558
a(S'Solve_Succeeded'
p559
I12
F0.5099099661672608
F6.537516
tp560
a(g9
I10
F0.0
F60.252729
tp561
a(S'Solve_Succeeded'
p562
I11
F2.1699427418565214
F6.054626
tp563
a(S'Solve_Succeeded'
p564
I15
F0.49374297778479337
F8.184899
tp565
a(S'Solve_Succeeded'
p566
I14
F0.7562192602693982
F7.594397
tp567
a(S'Solve_Succeeded'
p568
I10
F1.1926200981941129
F5.633518
tp569
a(S'Solve_Succeeded'
p570
I14
F0.06969256725590874
F7.504037
tp571
a(S'Solve_Succeeded'
p572
I19
F1.34072263595668
F10.352045
tp573
a(S'Solve_Succeeded'
p574
I10
F0.08514495332380893
F5.637418
tp575
a(S'Solve_Succeeded'
p576
I12
F0.2934767067070774
F6.584325
tp577
a(S'Solve_Succeeded'
p578
I12
F12.233805978895564
F6.546966
tp579
a(S'Solve_Succeeded'
p580
I9
F0.836745407100972
F5.239054
tp581
a(S'Solve_Succeeded'
p582
I12
F0.21052072281050466
F6.586011
tp583
a(S'Solve_Succeeded'
p584
I13
F0.6448604772632903
F7.156834
tp585
a(S'Solve_Succeeded'
p586
I10
F0.6825281662275455
F5.61753
tp587
a(S'Solve_Succeeded'
p588
I12
F9.75917276583901
F6.677218
tp589
a(S'Solve_Succeeded'
p590
I12
F0.054880558547124515
F6.544867
tp591
a(S'Solve_Succeeded'
p592
I12
F0.32485699340534624
F6.636591
tp593
a(S'Solve_Succeeded'
p594
I17
F0.49860115239630437
F8.901696
tp595
a(S'Solve_Succeeded'
p596
I13
F0.28463988448071
F7.027702
tp597
a(S'Solve_Succeeded'
p598
I28
F1.1479787124990464
F19.506742
tp599
a(S'Solve_Succeeded'
p600
I24
F0.39932060870447905
F16.140365
tp601
a(S'Solve_Succeeded'
p602
I18
F1.004277647774527
F9.67224
tp603
a(S'Solve_Succeeded'
p604
I15
F8.059953094874363
F8.045725
tp605
a(S'Solve_Succeeded'
p606
I14
F1.6268544126044087
F7.29942
tp607
a(S'Solve_Succeeded'
p608
I9
F1.2308717732521934
F5.300552
tp609
a(S'Solve_Succeeded'
p610
I16
F0.9110516136160819
F8.632607
tp611
a(g9
I71
F0.0
F60.350632
tp612
a(S'Solve_Succeeded'
p613
I9
F0.23318637707535145
F5.704574
tp614
a(S'Solve_Succeeded'
p615
I11
F1.4060050299789868
F6.093891
tp616
a(S'Solve_Succeeded'
p617
I11
F0.31700663326788225
F6.219509
tp618
a(S'Solve_Succeeded'
p619
I13
F0.5436206642086985
F7.089358
tp620
a(S'Solve_Succeeded'
p621
I31
F4.598982096254836
F26.327106
tp622
a(S'Invalid_Number_Detected'
p623
I41
F0.0
F47.158172
tp624
a(S'Solve_Succeeded'
p625
I15
F0.2975292720827395
F9.257138
tp626
a(S'Solve_Succeeded'
p627
I14
F1.4100161276589331
F7.56018
tp628
a(S'Solve_Succeeded'
p629
I12
F0.09801294225549294
F6.583583
tp630
a(S'Solve_Succeeded'
p631
I12
F0.08233892407153937
F6.541879
tp632
a(S'Solve_Succeeded'
p633
I13
F0.6036984717450666
F7.178269
tp634
a(S'Solve_Succeeded'
p635
I23
F0.527535226024789
F18.222698
tp636
ass.