(dp0
S'fourbar1'
p1
(dp2
S'4.10'
p3
(lp4
(S'Solve_Succeeded'
p5
I16
F0.0010345526386575851
F3.209143
tp6
a(S'Maximum_CPU_Time_Exceeded'
p7
I88
F0.0
F40.747005
tp8
a(g7
I88
F0.0
F40.313271
tp9
a(S'Solve_Succeeded'
p10
I16
F0.001036825081725706
F3.547393
tp11
a(g7
I78
F0.0
F40.198244
tp12
a(S'Solve_Succeeded'
p13
I16
F0.0010314438674765836
F3.192316
tp14
a(S'Diverging_Iterates'
p15
I62
F0.6447321225237526
F21.178564
tp16
a(g7
I12
F0.0
F40.188256
tp17
a(g7
I35
F0.0
F40.216948
tp18
a(S'Restoration_Failed'
p19
I35
F0.02409653396499903
F10.557065
tp20
a(S'Solve_Succeeded'
p21
I18
F0.0009752072172863147
F3.548992
tp22
a(S'Restoration_Failed'
p23
I21
F0.01839099017869809
F15.068794
tp24
a(g7
I53
F0.0
F40.149173
tp25
a(S'Diverging_Iterates'
p26
I19
F0.020006700685216032
F6.658455
tp27
a(g7
I77
F0.0
F40.203506
tp28
a(S'Solve_Succeeded'
p29
I19
F0.000985056429641282
F3.711753
tp30
a(S'Solve_Succeeded'
p31
I19
F0.0009851627233039585
F3.937692
tp32
a(g7
I94
F0.0
F40.142978
tp33
a(S'Solve_Succeeded'
p34
I15
F0.0009747984118199648
F3.229607
tp35
a(S'Solve_Succeeded'
p36
I16
F0.0010352246709324647
F3.228267
tp37
a(g7
I76
F0.0
F40.20235
tp38
a(S'Diverging_Iterates'
p39
I14
F0.009367235949679765
F3.757666
tp40
a(S'Diverging_Iterates'
p41
I50
F0.4552805378627071
F13.65523
tp42
a(g7
I13
F0.0
F40.343575
tp43
a(g7
I16
F0.0
F40.137966
tp44
a(g7
I53
F0.0
F40.320367
tp45
a(S'Solve_Succeeded'
p46
I16
F0.0009741800072798401
F3.421208
tp47
a(g7
I14
F0.0
F40.16538
tp48
a(S'Diverging_Iterates'
p49
I52
F0.0179624495536742
F14.60368
tp50
a(g7
I25
F0.0
F40.282237
tp51
a(S'Diverging_Iterates'
p52
I63
F0.240179388052647
F15.620606
tp53
a(S'Diverging_Iterates'
p54
I40
F8.993157908913407
F10.355023
tp55
a(g7
I64
F0.0
F40.113308
tp56
a(g7
I39
F0.0
F40.130653
tp57
a(S'Solve_Succeeded'
p58
I17
F0.0010448768216307215
F3.489455
tp59
a(S'Solve_Succeeded'
p60
I20
F0.0009666879284905499
F3.892744
tp61
a(g7
I69
F0.0
F40.094475
tp62
a(S'Diverging_Iterates'
p63
I76
F0.05022377865927116
F24.333883
tp64
a(g7
I82
F0.0
F40.83192
tp65
a(S'Diverging_Iterates'
p66
I16
F0.015059533569425214
F4.395929
tp67
a(S'Diverging_Iterates'
p68
I79
F0.037155323130785026
F27.72057
tp69
a(g7
I16
F0.0
F40.146175
tp70
a(S'Diverging_Iterates'
p71
I13
F0.011159096373414133
F3.859024
tp72
a(g7
I19
F0.0
F40.32446
tp73
a(g7
I12
F0.0
F40.293884
tp74
a(S'Diverging_Iterates'
p75
I17
F0.014079499012211297
F4.777417
tp76
a(g7
I64
F0.0
F40.220497
tp77
a(S'Diverging_Iterates'
p78
I27
F0.08069751665764144
F7.430993
tp79
a(S'Restoration_Failed'
p80
I14
F0.031035092111458884
F21.671681
tp81
a(S'Solve_Succeeded'
p82
I18
F0.0009867489065593278
F3.554358
tp83
asS'4.05'
p84
(lp85
(g7
I52
F0.0
F40.552608
tp86
a(g7
I49
F0.0
F40.514398
tp87
a(g7
I72
F0.0
F40.755763
tp88
a(g7
I48
F0.0
F40.197698
tp89
a(g7
I51
F0.0
F40.580736
tp90
a(g7
I48
F0.0
F40.906191
tp91
a(g7
I44
F0.0
F41.709535
tp92
a(g7
I38
F0.0
F41.066218
tp93
a(g7
I64
F0.0
F40.331394
tp94
a(g7
I68
F0.0
F40.123263
tp95
a(g7
I58
F0.0
F40.131767
tp96
a(g7
I63
F0.0
F40.431999
tp97
a(g7
I63
F0.0
F40.479513
tp98
a(g7
I41
F0.0
F40.688676
tp99
a(g7
I65
F0.0
F40.253473
tp100
a(g7
I52
F0.0
F41.558203
tp101
a(g7
I52
F0.0
F40.175358
tp102
a(g7
I50
F0.0
F40.220924
tp103
a(g7
I52
F0.0
F40.492154
tp104
a(g7
I47
F0.0
F41.186598
tp105
a(g7
I64
F0.0
F40.522237
tp106
a(g7
I52
F0.0
F40.404971
tp107
a(g7
I50
F0.0
F40.691319
tp108
a(g7
I43
F0.0
F41.538985
tp109
a(g7
I49
F0.0
F40.079857
tp110
a(g7
I52
F0.0
F40.221944
tp111
a(g7
I57
F0.0
F40.17671
tp112
a(g7
I41
F0.0
F41.42219
tp113
a(g7
I47
F0.0
F40.23874
tp114
a(g7
I52
F0.0
F40.247342
tp115
a(g7
I55
F0.0
F40.345888
tp116
a(g7
I44
F0.0
F41.014078
tp117
a(g7
I51
F0.0
F40.402304
tp118
a(g7
I52
F0.0
F40.592709
tp119
a(g7
I55
F0.0
F40.197842
tp120
a(g7
I49
F0.0
F40.344207
tp121
a(g7
I49
F0.0
F41.417417
tp122
a(g7
I46
F0.0
F41.130959
tp123
a(g7
I61
F0.0
F40.534277
tp124
a(g7
I63
F0.0
F40.237059
tp125
a(g7
I43
F0.0
F40.297112
tp126
a(g7
I43
F0.0
F40.904745
tp127
a(g7
I44
F0.0
F40.753939
tp128
a(g7
I50
F0.0
F40.957383
tp129
a(g7
I37
F0.0
F40.805334
tp130
a(g7
I64
F0.0
F40.269453
tp131
a(g7
I56
F0.0
F40.439216
tp132
a(g7
I42
F0.0
F40.886829
tp133
a(g7
I50
F0.0
F40.182691
tp134
a(g7
I48
F0.0
F40.893594
tp135
asS'4.15'
p136
(lp137
(S'Restoration_Failed'
p138
I5
F0.0009083506863992711
F1.463003
tp139
a(S'Restoration_Failed'
p140
I9
F0.0010782640954083262
F2.365336
tp141
a(S'Restoration_Failed'
p142
I9
F0.0020573556594364324
F2.546762
tp143
a(S'Restoration_Failed'
p144
I5
F0.0009085583759211416
F1.711884
tp145
a(S'Restoration_Failed'
p146
I9
F0.00168372053707307
F2.267228
tp147
a(S'Restoration_Failed'
p148
I8
F0.000886537362912437
F2.230075
tp149
a(S'Restoration_Failed'
p150
I9
F0.0010699719083182811
F2.55847
tp151
a(S'Restoration_Failed'
p152
I10
F0.002171209257761009
F2.804414
tp153
a(S'Restoration_Failed'
p154
I9
F0.001007333023941769
F2.384878
tp155
a(S'Restoration_Failed'
p156
I9
F0.0017482612763565426
F2.286294
tp157
a(S'Restoration_Failed'
p158
I6
F0.0011982546860532062
F1.720074
tp159
a(S'Restoration_Failed'
p160
I9
F0.0020186855531637194
F2.298829
tp161
a(S'Restoration_Failed'
p162
I9
F0.002019962255579428
F2.325791
tp163
a(S'Restoration_Failed'
p164
I9
F0.0010184221328304408
F2.438839
tp165
a(S'Restoration_Failed'
p166
I9
F0.001047997358583139
F2.265086
tp167
a(S'Restoration_Failed'
p168
I9
F0.0010844104385529425
F2.354757
tp169
a(S'Restoration_Failed'
p170
I9
F0.0010837985500882577
F2.410846
tp171
a(S'Restoration_Failed'
p172
I9
F0.0010824144011420942
F2.266249
tp173
a(S'Restoration_Failed'
p174
I6
F0.0013796132159500315
F1.704826
tp175
a(S'Restoration_Failed'
p176
I5
F0.0009084275403503505
F1.456333
tp177
a(S'Restoration_Failed'
p178
I9
F0.0010038287216977296
F2.362856
tp179
a(S'Restoration_Failed'
p180
I10
F0.0008401247022507499
F2.53231
tp181
a(S'Restoration_Failed'
p182
I9
F0.0017491185249161928
F2.367505
tp183
a(S'Restoration_Failed'
p184
I9
F0.0017564955282849408
F2.246331
tp185
a(S'Restoration_Failed'
p186
I9
F0.0017216247141928918
F2.422141
tp187
a(S'Restoration_Failed'
p188
I9
F0.0015444511111709753
F2.415634
tp189
a(S'Restoration_Failed'
p190
I6
F0.001328009151760967
F1.732887
tp191
a(S'Restoration_Failed'
p192
I9
F0.0009971528503867654
F2.360816
tp193
a(S'Restoration_Failed'
p194
I9
F0.0019515344084443929
F2.290274
tp195
a(S'Restoration_Failed'
p196
I9
F0.0014564694544103988
F2.374643
tp197
a(S'Restoration_Failed'
p198
I10
F0.0008437452176355945
F2.623669
tp199
a(S'Restoration_Failed'
p200
I8
F0.0008994178037718193
F2.210794
tp201
a(S'Restoration_Failed'
p202
I8
F0.0009015996070374324
F2.199828
tp203
a(S'Restoration_Failed'
p204
I10
F0.0022199153029523917
F2.670818
tp205
a(S'Restoration_Failed'
p206
I5
F0.001443169040219065
F1.613396
tp207
a(S'Restoration_Failed'
p208
I5
F0.0010188064705591424
F1.552221
tp209
a(S'Restoration_Failed'
p210
I9
F0.001744339492487325
F2.329014
tp211
a(S'Restoration_Failed'
p212
I9
F0.0016625255600344203
F2.289064
tp213
a(S'Restoration_Failed'
p214
I9
F0.001069953472610748
F2.37208
tp215
a(S'Restoration_Failed'
p216
I9
F0.0017182113638361633
F2.362431
tp217
a(S'Restoration_Failed'
p218
I9
F0.0010550163111935254
F2.301022
tp219
a(S'Restoration_Failed'
p220
I9
F0.0017487617847904732
F2.265349
tp221
a(S'Restoration_Failed'
p222
I9
F0.0017560533871046268
F2.31701
tp223
a(S'Restoration_Failed'
p224
I9
F0.0010823442417128297
F2.352638
tp225
a(S'Restoration_Failed'
p226
I9
F0.0017218766399213629
F2.354783
tp227
a(S'Restoration_Failed'
p228
I9
F0.0018019946691954774
F2.238104
tp229
a(S'Restoration_Failed'
p230
I9
F0.0010704200613945677
F2.307295
tp231
a(S'Restoration_Failed'
p232
I8
F0.0009066165959861607
F2.14541
tp233
a(S'Restoration_Failed'
p234
I9
F0.0010720269195062552
F2.350333
tp235
a(S'Restoration_Failed'
p236
I9
F0.0010793243282070366
F2.44719
tp237
asS'4.03'
p238
(lp239
(S'Restoration_Failed'
p240
I5
F0.000967876700314069
F5.133794
tp241
a(S'Restoration_Failed'
p242
I5
F0.0007863937780015011
F5.577382
tp243
a(S'Restoration_Failed'
p244
I5
F0.0009108990325267217
F5.566154
tp245
a(S'Restoration_Failed'
p246
I5
F0.0010380920461363849
F5.67277
tp247
a(S'Restoration_Failed'
p248
I5
F0.0009110361529136874
F5.817644
tp249
a(S'Restoration_Failed'
p250
I5
F0.00082328931738324
F5.826329
tp251
a(S'Restoration_Failed'
p252
I5
F0.0007652229448843642
F5.793319
tp253
a(S'Restoration_Failed'
p254
I5
F0.0008003833523801339
F5.389333
tp255
a(S'Restoration_Failed'
p256
I5
F0.00106339895351696
F5.756472
tp257
a(S'Restoration_Failed'
p258
I5
F0.0008951734290259677
F5.234753
tp259
a(S'Restoration_Failed'
p260
I5
F0.0007319297916480186
F5.954992
tp261
a(S'Restoration_Failed'
p262
I5
F0.000881926400938092
F5.257046
tp263
a(S'Restoration_Failed'
p264
I5
F0.0008824513326751561
F6.612868
tp265
a(S'Restoration_Failed'
p266
I5
F0.0007721324785556324
F6.050289
tp267
a(S'Restoration_Failed'
p268
I5
F0.0007547027857155987
F5.576662
tp269
a(S'Restoration_Failed'
p270
I5
F0.0008105458195393401
F5.382151
tp271
a(S'Restoration_Failed'
p272
I5
F0.0008011169874512785
F5.334081
tp273
a(S'Restoration_Failed'
p274
I5
F0.0007717560101349703
F5.579435
tp275
a(S'Restoration_Failed'
p276
I5
F0.0007294930716902743
F6.273652
tp277
a(S'Restoration_Failed'
p278
I5
F0.0010571032753182831
F5.441822
tp279
a(S'Restoration_Failed'
p280
I5
F0.0014616950418753032
F5.70313
tp281
a(S'Restoration_Failed'
p282
I5
F0.0009319883893794225
F5.238229
tp283
a(S'Restoration_Failed'
p284
I5
F0.0008690182908201485
F6.023445
tp285
a(S'Restoration_Failed'
p286
I5
F0.0008776844076084212
F5.615529
tp287
a(S'Restoration_Failed'
p288
I5
F0.0008238627967979546
F5.694298
tp289
a(S'Restoration_Failed'
p290
I5
F0.0008063296298554296
F5.592838
tp291
a(S'Restoration_Failed'
p292
I5
F0.0007285272148566173
F6.048678
tp293
a(S'Restoration_Failed'
p294
I5
F0.0008072492072260602
F6.161755
tp295
a(S'Restoration_Failed'
p296
I5
F0.001074928281313328
F5.921716
tp297
a(S'Restoration_Failed'
p298
I5
F0.0007907863503534486
F5.331112
tp299
a(S'Restoration_Failed'
p300
I5
F0.0009423405087846377
F5.441364
tp301
a(S'Restoration_Failed'
p302
I5
F0.0010398475459491054
F5.587964
tp303
a(S'Restoration_Failed'
p304
I5
F0.0009879108748829868
F5.868854
tp305
a(S'Restoration_Failed'
p306
I5
F0.0007972066805522817
F5.730815
tp307
a(S'Restoration_Failed'
p308
I5
F0.0009240136621990952
F5.527309
tp309
a(S'Restoration_Failed'
p310
I5
F0.0007762440150488898
F5.521035
tp311
a(S'Restoration_Failed'
p312
I5
F0.0009941731437215565
F5.865179
tp313
a(S'Restoration_Failed'
p314
I5
F0.0008842801608594074
F5.385858
tp315
a(S'Restoration_Failed'
p316
I5
F0.0007740603172674119
F5.764172
tp317
a(S'Restoration_Failed'
p318
I5
F0.0007907711876702653
F5.375685
tp319
a(S'Restoration_Failed'
p320
I5
F0.0008949120157687034
F5.937355
tp321
a(S'Restoration_Failed'
p322
I5
F0.0008948334463704261
F5.732579
tp323
a(S'Restoration_Failed'
p324
I5
F0.00086609071832648
F5.564707
tp325
a(S'Restoration_Failed'
p326
I5
F0.0007664481423168141
F5.379721
tp327
a(S'Restoration_Failed'
p328
I5
F0.0008159624678198273
F5.766759
tp329
a(S'Restoration_Failed'
p330
I5
F0.0008239126177820065
F5.15906
tp331
a(S'Restoration_Failed'
p332
I5
F0.0007260939442344814
F6.152496
tp333
a(S'Restoration_Failed'
p334
I5
F0.0008307429630577198
F6.274607
tp335
a(S'Restoration_Failed'
p336
I5
F0.0007287464126577212
F5.773493
tp337
a(S'Restoration_Failed'
p338
I5
F0.001224618055056746
F5.825402
tp339
asS'4.40'
p340
(lp341
(S'Solve_Succeeded'
p342
I11
F0.0010738932879252076
F1.893264
tp343
a(S'Solve_Succeeded'
p344
I12
F0.001031064249539696
F2.003873
tp345
a(S'Solve_Succeeded'
p346
I10
F0.0010597718710093848
F1.841834
tp347
a(S'Solve_Succeeded'
p348
I12
F0.0010760349988424862
F2.079147
tp349
a(S'Solve_Succeeded'
p350
I11
F0.0010489407144276283
F1.902806
tp351
a(S'Solve_Succeeded'
p352
I18
F0.001070965579988299
F2.963714
tp353
a(S'Solve_Succeeded'
p354
I13
F0.0010355254451356495
F2.48378
tp355
a(S'Solve_Succeeded'
p356
I11
F0.0010648887341232242
F1.967191
tp357
a(S'Solve_Succeeded'
p358
I14
F0.0010387293198393175
F2.261091
tp359
a(S'Solve_Succeeded'
p360
I13
F0.001043243198067751
F2.174091
tp361
a(S'Solve_Succeeded'
p362
I13
F0.0010182538659325026
F2.237395
tp363
a(S'Solve_Succeeded'
p364
I10
F0.001060469615908033
F1.759116
tp365
a(S'Solve_Succeeded'
p366
I10
F0.0010604554710434493
F1.702608
tp367
a(S'Solve_Succeeded'
p368
I14
F0.0010397785245334793
F2.274144
tp369
a(S'Solve_Succeeded'
p370
I13
F0.0010366949420286388
F2.120284
tp371
a(S'Solve_Succeeded'
p372
I12
F0.001027465216541359
F2.065253
tp373
a(S'Solve_Succeeded'
p374
I12
F0.001027564654842965
F2.083921
tp375
a(S'Solve_Succeeded'
p376
I12
F0.0010279172370075006
F1.998957
tp377
a(S'Solve_Succeeded'
p378
I13
F0.001017871627871375
F2.180522
tp379
a(S'Solve_Succeeded'
p380
I11
F0.0010745265104803797
F1.99277
tp381
a(S'Solve_Succeeded'
p382
I14
F0.001038317061744683
F2.29722
tp383
a(S'Solve_Succeeded'
p384
I12
F0.0010262326276373945
F1.999021
tp385
a(S'Solve_Succeeded'
p386
I13
F0.001043422183130258
F2.237364
tp387
a(S'Solve_Succeeded'
p388
I12
F0.0010463211537675105
F2.071605
tp389
a(S'Solve_Succeeded'
p390
I13
F0.0010448616113496233
F2.228984
tp391
a(S'Solve_Succeeded'
p392
I11
F0.0010485568221597586
F1.994282
tp393
a(S'Solve_Succeeded'
p394
I13
F0.0010172934229225822
F2.238469
tp395
a(S'Solve_Succeeded'
p396
I14
F0.0010379541305041641
F2.278948
tp397
a(S'Solve_Succeeded'
p398
I10
F0.0010592607731026
F1.73016
tp399
a(S'Solve_Succeeded'
p400
I12
F0.001048259677871427
F2.114786
tp401
a(S'Solve_Succeeded'
p402
I12
F0.0010260714313325154
F2.098684
tp403
a(S'Solve_Succeeded'
p404
I10
F0.0010528475512668872
F1.77057
tp405
a(S'Solve_Succeeded'
p406
I9
F0.00105235947538684
F1.559017
tp407
a(S'Solve_Succeeded'
p408
I11
F0.0010648484622923285
F1.95307
tp409
a(S'Solve_Succeeded'
p410
I12
F0.0010836363937329512
F1.963794
tp411
a(S'Solve_Succeeded'
p412
I14
F0.001010289173705921
F2.338622
tp413
a(S'Solve_Succeeded'
p414
I13
F0.001045685329799036
F2.096317
tp415
a(S'Solve_Succeeded'
p416
I11
F0.0010488715040873008
F1.895376
tp417
a(S'Solve_Succeeded'
p418
I13
F0.0010358737346289446
F2.233715
tp419
a(S'Solve_Succeeded'
p420
I12
F0.0010471253899076653
F2.088392
tp421
a(S'Solve_Succeeded'
p422
I14
F0.001037667946440767
F2.296531
tp423
a(S'Solve_Succeeded'
p424
I12
F0.0010462316033646578
F1.948179
tp425
a(S'Solve_Succeeded'
p426
I12
F0.001046472945604941
F1.969306
tp427
a(S'Solve_Succeeded'
p428
I12
F0.001027930153533569
F2.060954
tp429
a(S'Solve_Succeeded'
p430
I13
F0.001044896006080148
F2.213946
tp431
a(S'Solve_Succeeded'
p432
I11
F0.0010661105974110001
F1.884498
tp433
a(S'Solve_Succeeded'
p434
I13
F0.0010343864473920114
F2.254667
tp435
a(S'Solve_Succeeded'
p436
I10
F0.0010510540567074485
F1.755588
tp437
a(S'Solve_Succeeded'
p438
I13
F0.0010350642203254077
F2.211021
tp439
a(S'Solve_Succeeded'
p440
I12
F0.0010290486258603166
F2.019308
tp441
asS'4.50'
p442
(lp443
(S'Solve_Succeeded'
p444
I11
F0.0010738932879250287
F1.787373
tp445
a(S'Solve_Succeeded'
p446
I12
F0.001031064249553145
F1.963679
tp447
a(S'Solve_Succeeded'
p448
I10
F0.0010597718710093852
F1.709104
tp449
a(S'Solve_Succeeded'
p450
I11
F0.0010760349988466625
F1.802043
tp451
a(S'Solve_Succeeded'
p452
I11
F0.0010489407144276995
F1.71004
tp453
a(S'Solve_Succeeded'
p454
I17
F0.0010709655800504535
F2.612435
tp455
a(S'Solve_Succeeded'
p456
I13
F0.0010355254451356673
F2.238701
tp457
a(S'Solve_Succeeded'
p458
I11
F0.001064888734123222
F1.8379
tp459
a(S'Solve_Succeeded'
p460
I14
F0.001038729319839384
F2.271215
tp461
a(S'Solve_Succeeded'
p462
I13
F0.0010432431980677106
F1.995093
tp463
a(S'Solve_Succeeded'
p464
I13
F0.0010182538659340352
F2.10384
tp465
a(S'Solve_Succeeded'
p466
I10
F0.0010604696159080343
F1.593992
tp467
a(S'Solve_Succeeded'
p468
I10
F0.0010604554710434526
F1.585894
tp469
a(S'Solve_Succeeded'
p470
I14
F0.001039778524533659
F2.205661
tp471
a(S'Solve_Succeeded'
p472
I13
F0.0010366949420288825
F2.08327
tp473
a(S'Solve_Succeeded'
p474
I13
F0.001027465216468995
F2.066874
tp475
a(S'Solve_Succeeded'
p476
I13
F0.0010275646547729075
F2.063649
tp477
a(S'Solve_Succeeded'
p478
I12
F0.0010279172370396088
F1.923331
tp479
a(S'Solve_Succeeded'
p480
I13
F0.001017871627873268
F1.98418
tp481
a(S'Solve_Succeeded'
p482
I11
F0.0010745265104803797
F1.697241
tp483
a(S'Solve_Succeeded'
p484
I14
F0.0010383170617447061
F2.135735
tp485
a(S'Solve_Succeeded'
p486
I13
F0.0010262326276373967
F2.142471
tp487
a(S'Solve_Succeeded'
p488
I13
F0.0010434221831302278
F2.137471
tp489
a(S'Solve_Succeeded'
p490
I12
F0.0010463211537682891
F1.925351
tp491
a(S'Solve_Succeeded'
p492
I13
F0.0010448616113496356
F2.027201
tp493
a(S'Solve_Succeeded'
p494
I11
F0.001048556822160141
F1.773304
tp495
a(S'Solve_Succeeded'
p496
I13
F0.00101729342292523
F1.986293
tp497
a(S'Solve_Succeeded'
p498
I14
F0.0010379541305041704
F2.288654
tp499
a(S'Solve_Succeeded'
p500
I10
F0.001059260773102596
F1.72815
tp501
a(S'Solve_Succeeded'
p502
I12
F0.001048259677871429
F1.908505
tp503
a(S'Solve_Succeeded'
p504
I13
F0.0010260714313325345
F2.019293
tp505
a(S'Solve_Succeeded'
p506
I10
F0.0010528475512668854
F1.669241
tp507
a(S'Solve_Succeeded'
p508
I9
F0.001052359475386841
F1.491773
tp509
a(S'Solve_Succeeded'
p510
I11
F0.0010648484622923274
F1.733714
tp511
a(S'Solve_Succeeded'
p512
I11
F0.0010836363938078713
F1.719817
tp513
a(S'Solve_Succeeded'
p514
I14
F0.0010102891737061484
F2.165922
tp515
a(S'Solve_Succeeded'
p516
I12
F0.0010456853298667556
F2.04412
tp517
a(S'Solve_Succeeded'
p518
I11
F0.0010488715040873973
F1.704094
tp519
a(S'Solve_Succeeded'
p520
I13
F0.0010358737346289851
F2.115664
tp521
a(S'Solve_Succeeded'
p522
I12
F0.0010471253899076824
F1.95373
tp523
a(S'Solve_Succeeded'
p524
I13
F0.0010376679464523316
F1.988609
tp525
a(S'Solve_Succeeded'
p526
I12
F0.0010462316033656542
F1.954933
tp527
a(S'Solve_Succeeded'
p528
I12
F0.0010464729456056432
F1.943825
tp529
a(S'Solve_Succeeded'
p530
I12
F0.0010279301535655425
F1.904103
tp531
a(S'Solve_Succeeded'
p532
I13
F0.0010448960060801583
F1.999439
tp533
a(S'Solve_Succeeded'
p534
I11
F0.0010661105974110034
F1.760548
tp535
a(S'Solve_Succeeded'
p536
I13
F0.001034386447392011
F2.052833
tp537
a(S'Solve_Succeeded'
p538
I10
F0.0010510540567074465
F1.574402
tp539
a(S'Solve_Succeeded'
p540
I13
F0.0010350642203254157
F2.096644
tp541
a(S'Solve_Succeeded'
p542
I12
F0.001029048625885252
F1.898563
tp543
asS'1'
p544
(lp545
(g7
I19
F0.0
F40.468313
tp546
a(S'Solve_Succeeded'
p547
I23
F0.0010343078210115627
F17.620972
tp548
a(g7
I24
F0.0
F42.027697
tp549
a(g7
I33
F0.0
F41.049642
tp550
a(S'Solve_Succeeded'
p551
I10
F0.001052120721693625
F7.877385
tp552
a(S'Restoration_Failed'
p553
I8
F0.0010894674096001593
F24.088475
tp554
a(S'Solve_Succeeded'
p555
I24
F0.0010387524609349766
F18.522704
tp556
a(S'Restoration_Failed'
p557
I8
F0.0010807318070596027
F21.906547
tp558
a(S'Solve_Succeeded'
p559
I23
F0.0010419447114953645
F16.262718
tp560
a(S'Solve_Succeeded'
p561
I23
F0.0010464426540469452
F17.185407
tp562
a(S'Solve_Succeeded'
p563
I10
F0.0010215466371649037
F8.10572
tp564
a(S'Restoration_Failed'
p565
I16
F0.0010752148748442547
F30.703514
tp566
a(g7
I24
F0.0
F40.65658
tp567
a(S'Solve_Succeeded'
p568
I22
F0.001042990170440347
F16.118898
tp569
a(S'Solve_Succeeded'
p570
I24
F0.0010399176832746164
F17.20673
tp571
a(S'Solve_Succeeded'
p572
I24
F0.001030722394420514
F17.954545
tp573
a(S'Solve_Succeeded'
p574
I24
F0.001030821454088954
F17.195545
tp575
a(S'Solve_Succeeded'
p576
I24
F0.001031172694880085
F17.966262
tp577
a(S'Solve_Succeeded'
p578
I10
F0.0010211658956711472
F8.008675
tp579
a(S'Solve_Succeeded'
p580
I26
F0.0010776332354604128
F31.157034
tp581
a(S'Solve_Succeeded'
p582
I23
F0.001041533933331784
F17.153902
tp583
a(S'Solve_Succeeded'
p584
I24
F0.0010294945103864772
F15.769993
tp585
a(S'Solve_Succeeded'
p586
I23
F0.0010466210164471112
F16.393876
tp587
a(S'Solve_Succeeded'
p588
I24
F0.0010495100025431092
F18.860536
tp589
a(S'Solve_Succeeded'
p590
I23
F0.0010480554629506986
F17.277385
tp591
a(S'Solve_Succeeded'
p592
I11
F0.0010517381128643227
F8.465913
tp593
a(S'Solve_Succeeded'
p594
I10
F0.0010205899572287072
F7.886679
tp595
a(S'Solve_Succeeded'
p596
I23
F0.001041172308934045
F16.327972
tp597
a(g7
I38
F0.0
F40.822416
tp598
a(S'Solve_Succeeded'
p599
I11
F0.0010514419650891923
F9.100047
tp600
a(S'Solve_Succeeded'
p601
I24
F0.0010293339308715592
F17.274946
tp602
a(S'Solve_Succeeded'
p603
I24
F0.0010560147613530816
F16.849978
tp604
a(S'Solve_Succeeded'
p605
I9
F0.001055528257032869
F7.299945
tp606
a(S'Restoration_Failed'
p607
I8
F0.0010806620411990943
F23.466433
tp608
a(g7
I22
F0.0
F40.528095
tp609
a(S'Solve_Succeeded'
p610
I11
F0.0010136134005896374
F7.311553
tp611
a(S'Solve_Succeeded'
p612
I23
F0.0010488763517804897
F15.746449
tp613
a(S'Solve_Succeeded'
p614
I10
F0.00105205174242791
F8.150356
tp615
a(S'Solve_Succeeded'
p616
I24
F0.001039099474085957
F17.5307
tp617
a(S'Solve_Succeeded'
p618
I10
F0.0010503115042401567
F8.268341
tp619
a(S'Solve_Succeeded'
p620
I23
F0.0010408871580112153
F16.006609
tp621
a(S'Solve_Succeeded'
p622
I23
F0.0010494207576178729
F16.25169
tp623
a(S'Solve_Succeeded'
p624
I24
F0.001049661277034377
F16.325021
tp625
a(S'Solve_Succeeded'
p626
I24
F0.0010311855623007327
F16.828741
tp627
a(S'Solve_Succeeded'
p628
I23
F0.0010480897392153834
F16.603693
tp629
a(S'Restoration_Failed'
p630
I8
F0.0010824509106079285
F24.124925
tp631
a(S'Solve_Succeeded'
p632
I22
F0.0010376176547580737
F16.384411
tp633
a(S'Solve_Succeeded'
p634
I9
F0.0010542270803779443
F7.518004
tp635
a(S'Solve_Succeeded'
p636
I23
F0.0010382929303108521
F17.275586
tp637
a(S'Solve_Succeeded'
p638
I23
F0.001032299792101483
F15.394336
tp639
asS'0'
p640
(lp641
(g7
I2
F0.0
F91.241857
tp642
a(S'Solve_Succeeded'
p643
I26
F0.0010343078210115625
F16.570141
tp644
a(g7
I2
F0.0
F104.00415
tp645
a(g7
I2
F0.0
F89.13104
tp646
a(S'Solve_Succeeded'
p647
I9
F0.001052120721694104
F7.169106
tp648
a(g7
I2
F0.0
F95.086571
tp649
a(S'Solve_Succeeded'
p650
I26
F0.0010387524609367462
F16.39438
tp651
a(g7
I2
F0.0
F94.475942
tp652
a(S'Solve_Succeeded'
p653
I26
F0.0010419447114998965
F16.951123
tp654
a(S'Solve_Succeeded'
p655
I26
F0.0010464426540493078
F15.766895
tp656
a(S'Solve_Succeeded'
p657
I26
F0.001021546637156228
F16.067998
tp658
a(g7
I2
F0.0
F99.061221
tp659
a(g7
I2
F0.0
F98.422869
tp660
a(S'Solve_Succeeded'
p661
I27
F0.0010429901704409848
F16.009759
tp662
a(S'Solve_Succeeded'
p663
I27
F0.0010399176832817881
F16.350989
tp664
a(S'Solve_Succeeded'
p665
I25
F0.0010307223944232753
F15.579569
tp666
a(S'Solve_Succeeded'
p667
I25
F0.0010308214540917147
F15.747173
tp668
a(S'Solve_Succeeded'
p669
I25
F0.0010311726948826335
F15.659577
tp670
a(S'Solve_Succeeded'
p671
I25
F0.001021165895667856
F14.988135
tp672
a(g7
I2
F0.0
F85.038748
tp673
a(S'Solve_Succeeded'
p674
I26
F0.0010415339333392816
F16.316486
tp675
a(S'Solve_Succeeded'
p676
I25
F0.0010294945103883316
F15.461265
tp677
a(S'Solve_Succeeded'
p678
I26
F0.0010466210164497272
F15.974499
tp679
a(S'Solve_Succeeded'
p680
I24
F0.0010495100025196035
F15.017582
tp681
a(S'Solve_Succeeded'
p682
I26
F0.0010480554629555086
F15.48036
tp683
a(S'Solve_Succeeded'
p684
I10
F0.0010517381128642407
F7.792957
tp685
a(S'Solve_Succeeded'
p686
I26
F0.0010205899572212742
F16.128924
tp687
a(S'Solve_Succeeded'
p688
I26
F0.0010411723089266463
F16.061827
tp689
a(g7
I2
F0.0
F99.675404
tp690
a(S'Solve_Succeeded'
p691
I10
F0.0010514419650887198
F7.735561
tp692
a(S'Solve_Succeeded'
p693
I25
F0.0010293339308732469
F15.818754
tp694
a(S'Solve_Succeeded'
p695
I24
F0.0010560147613570827
F14.357558
tp696
a(S'Solve_Succeeded'
p697
I23
F0.001055528257043053
F14.77217
tp698
a(g7
I2
F0.0
F88.942223
tp699
a(g7
I2
F0.0
F76.891752
tp700
a(S'Solve_Succeeded'
p701
I27
F0.001013613400589578
F16.727043
tp702
a(S'Solve_Succeeded'
p703
I25
F0.0010488763517818235
F15.406003
tp704
a(S'Solve_Succeeded'
p705
I9
F0.0010520517424164422
F7.044944
tp706
a(S'Solve_Succeeded'
p707
I26
F0.0010390994740895466
F16.483987
tp708
a(S'Solve_Succeeded'
p709
I11
F0.0010503115042407617
F8.486984
tp710
a(S'Solve_Succeeded'
p711
I26
F0.0010408871579990152
F16.030541
tp712
a(S'Solve_Succeeded'
p713
I24
F0.001049420757596278
F15.191838
tp714
a(S'Solve_Succeeded'
p715
I24
F0.001049661277007647
F14.772466
tp716
a(S'Solve_Succeeded'
p717
I25
F0.0010311855623032665
F15.736254
tp718
a(S'Solve_Succeeded'
p719
I26
F0.0010480897392201884
F16.527817
tp720
a(g7
I2
F0.0
F90.996126
tp721
a(S'Solve_Succeeded'
p722
I26
F0.0010376176547536428
F16.30772
tp723
a(S'Solve_Succeeded'
p724
I9
F0.001054227080379025
F6.914106
tp725
a(S'Solve_Succeeded'
p726
I26
F0.0010382929303113682
F16.393332
tp727
a(S'Solve_Succeeded'
p728
I25
F0.001032299792101668
F15.781529
tp729
asS'3'
p730
(lp731
(S'Restoration_Failed'
p732
I4
F0.027346478078359698
F1.128839
tp733
a(S'Solve_Succeeded'
p734
I14
F0.0010343078210681728
F2.210398
tp735
a(S'Solve_Succeeded'
p736
I10
F0.0010629176813561278
F1.594935
tp737
a(S'Restoration_Failed'
p738
I4
F0.02740479414299242
F1.337784
tp739
a(S'Solve_Succeeded'
p740
I11
F0.0010521207216825418
F1.803524
tp741
a(S'Restoration_Failed'
p742
I4
F0.02719145076798146
F1.232593
tp743
a(S'Solve_Succeeded'
p744
I14
F0.0010387524609353342
F2.339121
tp745
a(S'Solve_Succeeded'
p746
I11
F0.0010680199004271507
F1.784064
tp747
a(S'Solve_Succeeded'
p748
I13
F0.0010419447115047982
F2.170686
tp749
a(S'Solve_Succeeded'
p750
I9
F0.0010464426540493482
F1.394085
tp751
a(S'Restoration_Failed'
p752
I9
F0.004293293099429084
F2.259796
tp753
a(S'Solve_Succeeded'
p754
I10
F0.001063613367547853
F1.622623
tp755
a(S'Solve_Succeeded'
p756
I10
F0.0010635992642311918
F1.538181
tp757
a(S'Solve_Succeeded'
p758
I10
F0.0010429901704432781
F1.543692
tp759
a(S'Solve_Succeeded'
p760
I13
F0.0010399176833947594
F2.031695
tp761
a(S'Solve_Succeeded'
p762
I15
F0.0010307223944198002
F2.267376
tp763
a(S'Solve_Succeeded'
p764
I15
F0.0010308214540883064
F2.323754
tp765
a(S'Solve_Succeeded'
p766
I15
F0.0010311726948796856
F2.318166
tp767
a(S'Solve_Succeeded'
p768
I22
F0.001021165895671298
F3.17953
tp769
a(S'Restoration_Failed'
p770
I4
F0.027375788456937514
F1.188702
tp771
a(S'Solve_Succeeded'
p772
I13
F0.001041533933346567
F2.134016
tp773
a(S'Solve_Succeeded'
p774
I15
F0.001029494510385557
F2.321916
tp775
a(S'Solve_Succeeded'
p776
I9
F0.0010466210164485883
F1.389692
tp777
a(S'Solve_Succeeded'
p778
I12
F0.0010495100025187847
F1.86761
tp779
a(S'Solve_Succeeded'
p780
I9
F0.0010480554629476104
F1.492734
tp781
a(S'Solve_Succeeded'
p782
I11
F0.0010517381128680812
F1.747782
tp783
a(S'Solve_Succeeded'
p784
I12
F0.0010205899572122384
F1.856533
tp785
a(S'Solve_Succeeded'
p786
I13
F0.0010411723089553324
F2.019276
tp787
a(S'Solve_Succeeded'
p788
I10
F0.001062408103277692
F1.67789
tp789
a(S'Solve_Succeeded'
p790
I11
F0.0010514419650967976
F1.704081
tp791
a(S'Solve_Succeeded'
p792
I15
F0.001029333930870706
F2.316029
tp793
a(S'Solve_Succeeded'
p794
I9
F0.0010560147613789773
F1.425029
tp795
a(S'Solve_Succeeded'
p796
I9
F0.0010555282570764953
F1.458251
tp797
a(S'Solve_Succeeded'
p798
I11
F0.0010679797395820691
F1.687836
tp799
a(S'Restoration_Failed'
p800
I4
F0.027745785859709916
F1.230631
tp801
a(S'Solve_Succeeded'
p802
I13
F0.0010136134005896517
F2.040737
tp803
a(S'Solve_Succeeded'
p804
I12
F0.0010488763517689584
F1.872579
tp805
a(S'Solve_Succeeded'
p806
I11
F0.0010520517424030646
F1.818545
tp807
a(S'Solve_Succeeded'
p808
I14
F0.001039099474086107
F2.149207
tp809
a(S'Solve_Succeeded'
p810
I11
F0.0010503115043257833
F1.760895
tp811
a(S'Solve_Succeeded'
p812
I13
F0.0010408871580392285
F2.116972
tp813
a(S'Solve_Succeeded'
p814
I12
F0.0010494207575955088
F1.844784
tp815
a(S'Solve_Succeeded'
p816
I12
F0.001049661277006761
F1.87647
tp817
a(S'Solve_Succeeded'
p818
I15
F0.0010311855623003417
F2.31392
tp819
a(S'Solve_Succeeded'
p820
I9
F0.0010480897392121066
F1.397978
tp821
a(S'Solve_Succeeded'
p822
I11
F0.0010692384303308798
F1.791925
tp823
a(S'Solve_Succeeded'
p824
I14
F0.0010376176547561167
F2.169489
tp825
a(S'Solve_Succeeded'
p826
I9
F0.001054227080531051
F1.446374
tp827
a(S'Solve_Succeeded'
p828
I14
F0.0010382929303117162
F2.323095
tp829
a(S'Solve_Succeeded'
p830
I15
F0.0010322997921004436
F2.347559
tp831
asS'4.20'
p832
(lp833
(S'Solve_Succeeded'
p834
I12
F0.0010738932879178838
F2.316928
tp835
a(S'Solve_Succeeded'
p836
I11
F0.00103106424951845
F1.994672
tp837
a(S'Solve_Succeeded'
p838
I10
F0.0010597718710098904
F1.98082
tp839
a(S'Solve_Succeeded'
p840
I12
F0.0010760349988429157
F2.589101
tp841
a(S'Solve_Succeeded'
p842
I12
F0.0010489407144176886
F2.225486
tp843
a(S'Solve_Succeeded'
p844
I12
F0.0010709655799883008
F2.467242
tp845
a(S'Solve_Succeeded'
p846
I22
F0.0010355254451356083
F3.818926
tp847
a(S'Solve_Succeeded'
p848
I12
F0.001064888734124079
F2.300837
tp849
a(S'Solve_Succeeded'
p850
I25
F0.001038729319839078
F4.58207
tp851
a(S'Solve_Succeeded'
p852
I24
F0.0010432431980639957
F3.938755
tp853
a(S'Solve_Succeeded'
p854
I12
F0.0010182538659316764
F2.142589
tp855
a(S'Solve_Succeeded'
p856
I10
F0.0010604696159085113
F1.813181
tp857
a(S'Solve_Succeeded'
p858
I10
F0.0010604554710439236
F1.883334
tp859
a(S'Solve_Succeeded'
p860
I25
F0.001039778524533039
F4.142688
tp861
a(S'Solve_Succeeded'
p862
I23
F0.0010366949420278363
F3.856715
tp863
a(S'Solve_Succeeded'
p864
I11
F0.0010274652164747545
F2.108068
tp865
a(S'Solve_Succeeded'
p866
I11
F0.0010275646547782248
F2.063458
tp867
a(S'Solve_Succeeded'
p868
I11
F0.0010279172369482318
F2.028009
tp869
a(S'Solve_Succeeded'
p870
I12
F0.0010178716278706269
F2.112267
tp871
a(S'Solve_Succeeded'
p872
I12
F0.0010745265104750018
F2.253115
tp873
a(S'Solve_Succeeded'
p874
I24
F0.001038317061755589
F3.907408
tp875
a(S'Solve_Succeeded'
p876
I11
F0.0010262326276506114
F2.109547
tp877
a(S'Solve_Succeeded'
p878
I24
F0.0010434221831272146
F3.99204
tp879
a(S'Solve_Succeeded'
p880
I25
F0.0010463211537524784
F4.140707
tp881
a(S'Solve_Succeeded'
p882
I24
F0.0010448616113494268
F3.881988
tp883
a(S'Solve_Succeeded'
p884
I12
F0.0010485568221232022
F2.260161
tp885
a(S'Solve_Succeeded'
p886
I12
F0.0010172934229216986
F2.109712
tp887
a(S'Solve_Succeeded'
p888
I24
F0.0010379541305089181
F3.978629
tp889
a(S'Solve_Succeeded'
p890
I10
F0.0010592607731029714
F1.929311
tp891
a(S'Solve_Succeeded'
p892
I12
F0.001048259677872239
F2.132509
tp893
a(S'Solve_Succeeded'
p894
I11
F0.0010260714313467026
F2.078131
tp895
a(S'Solve_Succeeded'
p896
I11
F0.0010528475512668872
F2.108918
tp897
a(S'Solve_Succeeded'
p898
I9
F0.0010523594753868793
F1.692326
tp899
a(S'Solve_Succeeded'
p900
I11
F0.0010648484622967224
F2.008956
tp901
a(S'Solve_Succeeded'
p902
I12
F0.0010836363937331212
F2.171618
tp903
a(S'Solve_Succeeded'
p904
I13
F0.0010102891737069418
F2.410702
tp905
a(S'Solve_Succeeded'
p906
I24
F0.0010456853297990593
F3.9665
tp907
a(S'Solve_Succeeded'
p908
I12
F0.001048871504074318
F2.243036
tp909
a(S'Solve_Succeeded'
p910
I23
F0.0010358737346288383
F3.694727
tp911
a(S'Solve_Succeeded'
p912
I12
F0.0010471253899557117
F2.184125
tp913
a(S'Solve_Succeeded'
p914
I24
F0.0010376679464433303
F3.835727
tp915
a(S'Solve_Succeeded'
p916
I25
F0.001046231603345823
F4.086011
tp917
a(S'Solve_Succeeded'
p918
I24
F0.0010464729456483423
F3.943769
tp919
a(S'Solve_Succeeded'
p920
I11
F0.0010279301534745586
F2.107337
tp921
a(S'Solve_Succeeded'
p922
I24
F0.0010448960060799794
F3.881109
tp923
a(S'Solve_Succeeded'
p924
I12
F0.0010661105974115956
F2.14191
tp925
a(S'Solve_Succeeded'
p926
I11
F0.0010343864473920618
F2.045864
tp927
a(S'Solve_Succeeded'
p928
I10
F0.0010510540567168158
F1.836082
tp929
a(S'Solve_Succeeded'
p930
I11
F0.0010350642203255916
F2.012463
tp931
a(S'Solve_Succeeded'
p932
I11
F0.0010290486258228003
F2.093305
tp933
asS'2.05'
p934
(lp935
(g7
I11
F0.0
F42.269828
tp936
a(S'Solve_Succeeded'
p937
I23
F0.0010343078210115649
F22.612957
tp938
a(g7
I9
F0.0
F41.580363
tp939
a(S'Restoration_Failed'
p940
I11
F0.0010943184968303507
F37.685802
tp941
a(S'Solve_Succeeded'
p942
I10
F0.0010521207216838138
F11.530631
tp943
a(S'Restoration_Failed'
p944
I7
F0.0010895187938269352
F32.7924
tp945
a(S'Solve_Succeeded'
p946
I24
F0.0010387524609349785
F24.071087
tp947
a(S'Solve_Succeeded'
p948
I22
F0.0010680199004244756
F33.061958
tp949
a(S'Solve_Succeeded'
p950
I23
F0.0010419447114953817
F22.800521
tp951
a(S'Solve_Succeeded'
p952
I23
F0.0010464426540469389
F22.438043
tp953
a(S'Solve_Succeeded'
p954
I10
F0.00102154663716479
F10.906961
tp955
a(S'Restoration_Failed'
p956
I7
F0.001074373208087394
F27.787586
tp957
a(S'Restoration_Failed'
p958
I7
F0.0010752045571414607
F27.31386
tp959
a(S'Solve_Succeeded'
p960
I22
F0.0010429901704403488
F21.717716
tp961
a(S'Solve_Succeeded'
p962
I24
F0.0010399176832746185
F24.22058
tp963
a(S'Solve_Succeeded'
p964
I24
F0.0010307223944206038
F24.141348
tp965
a(S'Solve_Succeeded'
p966
I24
F0.0010308214540890237
F23.524726
tp967
a(S'Solve_Succeeded'
p968
I24
F0.0010311726948801407
F24.111754
tp969
a(S'Solve_Succeeded'
p970
I10
F0.0010211658956709672
F10.820423
tp971
a(S'Restoration_Failed'
p972
I4
F0.001100081691165296
F27.667835
tp973
a(S'Solve_Succeeded'
p974
I23
F0.0010415339333318268
F22.759353
tp975
a(S'Solve_Succeeded'
p976
I24
F0.0010294945103865158
F24.36329
tp977
a(S'Solve_Succeeded'
p978
I23
F0.0010466210164471028
F22.953021
tp979
a(S'Solve_Succeeded'
p980
I23
F0.0010495100025426924
F23.193778
tp981
a(S'Solve_Succeeded'
p982
I23
F0.0010480554629505676
F23.213375
tp983
a(S'Solve_Succeeded'
p984
I11
F0.0010517381128642544
F11.589965
tp985
a(S'Solve_Succeeded'
p986
I10
F0.001020589957213179
F10.759309
tp987
a(S'Solve_Succeeded'
p988
I23
F0.001041172308934129
F23.483166
tp989
a(g7
I17
F0.0
F42.136762
tp990
a(S'Solve_Succeeded'
p991
I11
F0.001051441965088955
F11.889057
tp992
a(S'Solve_Succeeded'
p993
I24
F0.0010293339308716117
F24.018342
tp994
a(S'Solve_Succeeded'
p995
I24
F0.0010560147613531549
F24.416509
tp996
a(S'Solve_Succeeded'
p997
I9
F0.0010555282570329065
F10.359371
tp998
a(S'Solve_Succeeded'
p999
I22
F0.0010679797395793816
F34.50198
tp1000
a(S'Restoration_Failed'
p1001
I5
F0.0011149522385031966
F25.586846
tp1002
a(S'Solve_Succeeded'
p1003
I11
F0.0010136134005896372
F11.401449
tp1004
a(S'Solve_Succeeded'
p1005
I23
F0.001048876351780448
F23.966093
tp1006
a(S'Solve_Succeeded'
p1007
I10
F0.0010520517424067106
F10.55605
tp1008
a(S'Solve_Succeeded'
p1009
I24
F0.001039099474085959
F24.483083
tp1010
a(S'Solve_Succeeded'
p1011
I10
F0.0010503115042401676
F10.87889
tp1012
a(S'Solve_Succeeded'
p1013
I23
F0.0010408871580113645
F22.894753
tp1014
a(S'Solve_Succeeded'
p1015
I23
F0.0010494207576175229
F23.353591
tp1016
a(S'Solve_Succeeded'
p1017
I23
F0.0010496612770338823
F23.559326
tp1018
a(S'Solve_Succeeded'
p1019
I24
F0.00103118556230079
F24.457521
tp1020
a(S'Solve_Succeeded'
p1021
I23
F0.0010480897392152553
F23.271346
tp1022
a(S'Solve_Succeeded'
p1023
I23
F0.0010692384303283044
F36.899919
tp1024
a(S'Solve_Succeeded'
p1025
I22
F0.0010376176547581598
F23.164278
tp1026
a(S'Solve_Succeeded'
p1027
I9
F0.0010542270803777533
F9.640003
tp1028
a(S'Solve_Succeeded'
p1029
I23
F0.001038292930310852
F23.595456
tp1030
a(S'Solve_Succeeded'
p1031
I23
F0.0010322997921015603
F22.950516
tp1032
asS'4.25'
p1033
(lp1034
(S'Solve_Succeeded'
p1035
I11
F0.0010738932879182047
F1.874142
tp1036
a(S'Solve_Succeeded'
p1037
I11
F0.0010310642495184503
F1.817824
tp1038
a(S'Solve_Succeeded'
p1039
I10
F0.0010597718710094945
F1.83187
tp1040
a(S'Solve_Succeeded'
p1041
I11
F0.0010760349988439852
F1.918909
tp1042
a(S'Solve_Succeeded'
p1043
I12
F0.0010489407144176773
F2.178125
tp1044
a(S'Solve_Succeeded'
p1045
I11
F0.0010709655799903634
F1.870346
tp1046
a(S'Solve_Succeeded'
p1047
I12
F0.0010355254451355892
F2.161676
tp1048
a(S'Solve_Succeeded'
p1049
I11
F0.0010648887341271802
F2.042515
tp1050
a(S'Solve_Succeeded'
p1051
I25
F0.001038729319839421
F3.676577
tp1052
a(S'Solve_Succeeded'
p1053
I24
F0.0010432431980640145
F3.491231
tp1054
a(S'Solve_Succeeded'
p1055
I12
F0.0010182538659376037
F2.029298
tp1056
a(S'Solve_Succeeded'
p1057
I10
F0.0010604696159081837
F1.634067
tp1058
a(S'Solve_Succeeded'
p1059
I10
F0.0010604554710435953
F1.818947
tp1060
a(S'Solve_Succeeded'
p1061
I24
F0.0010397785245331163
F3.624628
tp1062
a(S'Solve_Succeeded'
p1063
I12
F0.0010366949420275912
F2.033753
tp1064
a(S'Solve_Succeeded'
p1065
I11
F0.001027465216517607
F1.852161
tp1066
a(S'Solve_Succeeded'
p1067
I11
F0.0010275646548198354
F1.840262
tp1068
a(S'Solve_Succeeded'
p1069
I11
F0.0010279172369819336
F1.890002
tp1070
a(S'Solve_Succeeded'
p1071
I12
F0.0010178716278780922
F2.133141
tp1072
a(S'Solve_Succeeded'
p1073
I12
F0.0010745265104750048
F1.965488
tp1074
a(S'Solve_Succeeded'
p1075
I25
F0.0010383170617446528
F3.857502
tp1076
a(S'Solve_Succeeded'
p1077
I12
F0.0010262326276373847
F2.09772
tp1078
a(S'Solve_Succeeded'
p1079
I24
F0.0010434221831273347
F3.580734
tp1080
a(S'Solve_Succeeded'
p1081
I24
F0.0010463211538021423
F3.60313
tp1082
a(S'Solve_Succeeded'
p1083
I24
F0.0010448616113494277
F3.657762
tp1084
a(S'Solve_Succeeded'
p1085
I12
F0.0010485568221231356
F2.035077
tp1086
a(S'Solve_Succeeded'
p1087
I12
F0.0010172934229325335
F2.183219
tp1088
a(S'Solve_Succeeded'
p1089
I25
F0.0010379541305041574
F3.636585
tp1090
a(S'Solve_Succeeded'
p1091
I10
F0.0010592607731026754
F1.701562
tp1092
a(S'Solve_Succeeded'
p1093
I12
F0.0010482596778719916
F1.976635
tp1094
a(S'Solve_Succeeded'
p1095
I12
F0.001026071431332519
F1.959943
tp1096
a(S'Solve_Succeeded'
p1097
I12
F0.001052847551266869
F1.923656
tp1098
a(S'Solve_Succeeded'
p1099
I9
F0.0010523594753869404
F1.703695
tp1100
a(S'Solve_Succeeded'
p1101
I11
F0.0010648484622961675
F1.902588
tp1102
a(S'Solve_Succeeded'
p1103
I11
F0.0010836363937423476
F1.934922
tp1104
a(S'Solve_Succeeded'
p1105
I13
F0.0010102891737077948
F2.278092
tp1106
a(S'Solve_Succeeded'
p1107
I24
F0.0010456853297990385
F3.543103
tp1108
a(S'Solve_Succeeded'
p1109
I12
F0.0010488715040743103
F2.003425
tp1110
a(S'Solve_Succeeded'
p1111
I12
F0.0010358737346288127
F1.953508
tp1112
a(S'Solve_Succeeded'
p1113
I12
F0.0010471253899425486
F1.948243
tp1114
a(S'Solve_Succeeded'
p1115
I25
F0.0010376679464407644
F3.930271
tp1116
a(S'Solve_Succeeded'
p1117
I25
F0.001046231603345822
F3.633263
tp1118
a(S'Solve_Succeeded'
p1119
I24
F0.0010464729456335854
F3.67806
tp1120
a(S'Solve_Succeeded'
p1121
I11
F0.0010279301535081119
F1.838739
tp1122
a(S'Solve_Succeeded'
p1123
I24
F0.0010448960060799805
F3.546387
tp1124
a(S'Solve_Succeeded'
p1125
I11
F0.0010661105974185989
F1.828263
tp1126
a(S'Solve_Succeeded'
p1127
I11
F0.0010343864473925013
F1.977896
tp1128
a(S'Solve_Succeeded'
p1129
I10
F0.0010510540567198062
F1.634796
tp1130
a(S'Solve_Succeeded'
p1131
I11
F0.001035064220327547
F1.929025
tp1132
a(S'Solve_Succeeded'
p1133
I11
F0.0010290486258228032
F1.97624
tp1134
asS'2.10'
p1135
(lp1136
(S'Restoration_Failed'
p1137
I15
F0.0010813736642841904
F37.918986
tp1138
a(S'Solve_Succeeded'
p1139
I23
F0.001034307821011566
F16.661436
tp1140
a(g7
I25
F0.0
F40.763492
tp1141
a(g7
I22
F0.0
F40.692121
tp1142
a(S'Solve_Succeeded'
p1143
I10
F0.0010521207216846562
F8.502239
tp1144
a(S'Restoration_Failed'
p1145
I7
F0.0010894550556027535
F25.720984
tp1146
a(S'Solve_Succeeded'
p1147
I24
F0.0010387524609349781
F19.331201
tp1148
a(S'Restoration_Failed'
p1149
I8
F0.0010822901863260814
F23.978581
tp1150
a(S'Solve_Succeeded'
p1151
I23
F0.0010419447114953973
F17.911405
tp1152
a(S'Solve_Succeeded'
p1153
I23
F0.001046442654046942
F16.110905
tp1154
a(S'Solve_Succeeded'
p1155
I12
F0.0010215466371562276
F9.619341
tp1156
a(g7
I24
F0.0
F42.128964
tp1157
a(g7
I24
F0.0
F41.214314
tp1158
a(S'Solve_Succeeded'
p1159
I22
F0.0010429901704403512
F16.609587
tp1160
a(S'Solve_Succeeded'
p1161
I24
F0.0010399176832746203
F18.195101
tp1162
a(S'Solve_Succeeded'
p1163
I24
F0.0010307223944206142
F17.211481
tp1164
a(S'Solve_Succeeded'
p1165
I24
F0.0010308214540890326
F17.614707
tp1166
a(S'Solve_Succeeded'
p1167
I24
F0.0010311726948801518
F17.995854
tp1168
a(S'Solve_Succeeded'
p1169
I10
F0.0010211658956716537
F8.605897
tp1170
a(g7
I18
F0.0
F41.947373
tp1171
a(S'Solve_Succeeded'
p1172
I23
F0.0010415339333318613
F17.314359
tp1173
a(S'Solve_Succeeded'
p1174
I24
F0.0010294945103865225
F16.195472
tp1175
a(S'Solve_Succeeded'
p1176
I23
F0.0010466210164471015
F16.079803
tp1177
a(S'Solve_Succeeded'
p1178
I23
F0.001049510002543089
F16.117237
tp1179
a(S'Solve_Succeeded'
p1180
I23
F0.001048055462950634
F17.020459
tp1181
a(S'Solve_Succeeded'
p1182
I11
F0.0010517381128642691
F9.008372
tp1183
a(S'Solve_Succeeded'
p1184
I10
F0.0010205899572294985
F7.925267
tp1185
a(S'Solve_Succeeded'
p1186
I23
F0.0010411723089341878
F18.417955
tp1187
a(S'Restoration_Failed'
p1188
I7
F0.0010730418723519427
F21.910283
tp1189
a(S'Solve_Succeeded'
p1190
I11
F0.00105144196508902
F9.490693
tp1191
a(S'Solve_Succeeded'
p1192
I24
F0.0010293339308716039
F18.008096
tp1193
a(S'Solve_Succeeded'
p1194
I24
F0.001056014761353128
F18.29244
tp1195
a(S'Solve_Succeeded'
p1196
I9
F0.0010555282570328959
F8.058832
tp1197
a(S'Restoration_Failed'
p1198
I8
F0.0010790557412008177
F24.130762
tp1199
a(g7
I22
F0.0
F41.624517
tp1200
a(S'Solve_Succeeded'
p1201
I11
F0.0010136134005896398
F7.95991
tp1202
a(S'Solve_Succeeded'
p1203
I23
F0.0010488763517806261
F16.390767
tp1204
a(S'Solve_Succeeded'
p1205
I10
F0.0010520517424084826
F8.539414
tp1206
a(S'Solve_Succeeded'
p1207
I24
F0.0010390994740859584
F17.426906
tp1208
a(S'Solve_Succeeded'
p1209
I10
F0.0010503115042401637
F8.379611
tp1210
a(S'Solve_Succeeded'
p1211
I23
F0.0010408871580114556
F17.005754
tp1212
a(S'Solve_Succeeded'
p1213
I23
F0.001049420757617882
F18.36035
tp1214
a(S'Solve_Succeeded'
p1215
I24
F0.0010496612770342722
F17.839267
tp1216
a(S'Solve_Succeeded'
p1217
I24
F0.0010311855623007969
F16.492981
tp1218
a(S'Solve_Succeeded'
p1219
I23
F0.0010480897392153147
F16.460132
tp1220
a(S'Restoration_Failed'
p1221
I9
F0.0010816789340708495
F34.526294
tp1222
a(S'Solve_Succeeded'
p1223
I22
F0.0010376176547581837
F17.248019
tp1224
a(S'Solve_Succeeded'
p1225
I9
F0.0010542270803777806
F7.386642
tp1226
a(S'Solve_Succeeded'
p1227
I23
F0.0010382929303108552
F17.011678
tp1228
a(S'Solve_Succeeded'
p1229
I23
F0.0010322997921015692
F16.654745
tp1230
ass.