(dp0
S'vehicle'
p1
(dp2
S'1'
p3
(lp4
(S'Solve_Succeeded'
p5
I115
F4.082968103756583
F7.704706
tp6
a(S'Solve_Succeeded'
p7
I142
F3.9536546967960504
F10.588282
tp8
a(S'Solve_Succeeded'
p9
I70
F3.95625750677872
F4.482155
tp10
a(S'Maximum_CPU_Time_Exceeded'
p11
I404
F0.0
F30.128046
tp12
a(S'Solve_Succeeded'
p13
I45
F4.063490806538933
F3.591475
tp14
a(S'Solve_Succeeded'
p15
I118
F3.961230443172038
F9.475921
tp16
a(S'Solve_Succeeded'
p17
I101
F4.180882679511465
F6.357461
tp18
a(S'Solve_Succeeded'
p19
I64
F3.963525058660389
F4.226797
tp20
a(S'Solve_Succeeded'
p21
I31
F4.023276659989936
F1.810936
tp22
a(S'Solve_Succeeded'
p23
I168
F3.9043865168694616
F15.710267
tp24
a(S'Solve_Succeeded'
p25
I116
F4.129670850856083
F7.693721
tp26
a(S'Solve_Succeeded'
p27
I58
F3.941313347095092
F3.314169
tp28
a(g11
I360
F0.0
F30.094619
tp29
a(g11
I359
F0.0
F30.121429
tp30
a(g11
I345
F0.0
F30.080748
tp31
a(S'Solve_Succeeded'
p32
I68
F4.023446264555974
F3.777353
tp33
a(S'Solve_Succeeded'
p34
I85
F3.957393203253232
F6.045267
tp35
a(S'Solve_Succeeded'
p36
I51
F4.117301952851823
F3.437593
tp37
a(S'Solve_Succeeded'
p38
I70
F3.9390392948263786
F3.894136
tp39
a(g11
I339
F0.0
F30.130767
tp40
a(S'Solve_Succeeded'
p41
I56
F3.963724573914758
F3.760745
tp42
a(S'Solve_Succeeded'
p43
I102
F3.980176533630361
F7.70386
tp44
a(S'Solve_Succeeded'
p45
I143
F3.98956705585196
F8.155373
tp46
a(S'Solve_Succeeded'
p47
I43
F4.073125174234561
F2.768306
tp48
a(g11
I424
F0.0
F30.112941
tp49
a(S'Solve_Succeeded'
p50
I100
F3.9756394868721268
F6.932878
tp51
a(S'Solve_Succeeded'
p52
I29
F3.9176518474904114
F1.950264
tp53
a(S'Solve_Succeeded'
p54
I44
F3.9840932627735057
F3.255408
tp55
a(g11
I451
F0.0
F30.120293
tp56
a(S'Infeasible_Problem_Detected'
p57
I267
F3.953057800610715
F28.222688
tp58
a(S'Solve_Succeeded'
p59
I51
F3.9146291527541996
F3.406634
tp60
a(S'Solve_Succeeded'
p61
I35
F3.965418123565041
F2.473731
tp62
a(S'Solve_Succeeded'
p63
I57
F3.9437637653047735
F3.20617
tp64
a(S'Solve_Succeeded'
p65
I71
F3.9973809700860445
F6.28051
tp66
a(S'Infeasible_Problem_Detected'
p67
I283
F4.23748109654306
F27.01939
tp68
a(S'Solve_Succeeded'
p69
I60
F3.921708254622976
F3.82249
tp70
a(S'Solve_Succeeded'
p71
I95
F4.101431831728734
F6.656775
tp72
a(g11
I352
F0.0
F30.076728
tp73
a(S'Solve_Succeeded'
p74
I224
F4.056497900181493
F18.464927
tp75
a(S'Solve_Succeeded'
p76
I130
F4.1623106699710135
F10.969578
tp77
a(S'Infeasible_Problem_Detected'
p78
I259
F4.122883925766418
F28.127618
tp79
a(g11
I381
F0.0
F30.088576
tp80
a(S'Solve_Succeeded'
p81
I106
F4.058966015765192
F7.590911
tp82
a(S'Solve_Succeeded'
p83
I99
F4.068746408153712
F6.070645
tp84
a(g11
I387
F0.0
F30.254218
tp85
a(S'Solve_Succeeded'
p86
I169
F3.941471112200981
F11.196661
tp87
a(g11
I343
F0.0
F30.172564
tp88
a(S'Solve_Succeeded'
p89
I75
F3.9953646084253793
F4.863417
tp90
a(S'Solve_Succeeded'
p91
I77
F3.918360274577111
F4.908123
tp92
a(S'Solve_Succeeded'
p93
I64
F4.080795523910336
F4.492607
tp94
a(S'Solve_Succeeded'
p95
I212
F3.982784042767928
F16.071576
tp96
a(S'Solve_Succeeded'
p97
I57
F4.03592859211316
F3.699966
tp98
a(g11
I366
F0.0
F30.143882
tp99
a(S'Solve_Succeeded'
p100
I130
F4.1321930923231065
F8.007865
tp101
a(S'Solve_Succeeded'
p102
I44
F3.9876832182637036
F3.330396
tp103
a(S'Solve_Succeeded'
p104
I129
F4.0653727441918
F8.757912
tp105
a(S'Solve_Succeeded'
p106
I47
F4.040619576419885
F3.209413
tp107
a(S'Solve_Succeeded'
p108
I78
F3.925354917863879
F6.365039
tp109
a(S'Solve_Succeeded'
p110
I63
F4.012415967346334
F3.629555
tp111
a(S'Solve_Succeeded'
p112
I46
F3.9770557649337896
F3.182344
tp113
a(S'Solve_Succeeded'
p114
I90
F4.084784005605555
F6.334924
tp115
a(S'Solve_Succeeded'
p116
I127
F4.010030847983313
F7.286758
tp117
a(S'Solve_Succeeded'
p118
I143
F4.02300663923126
F10.064633
tp119
a(S'Solve_Succeeded'
p120
I84
F3.9979168808349077
F6.077257
tp121
a(S'Solve_Succeeded'
p122
I99
F4.119332566582153
F5.97387
tp123
a(S'Solve_Succeeded'
p124
I81
F4.068788207613024
F5.168275
tp125
a(S'Solve_Succeeded'
p126
I64
F3.978052915847991
F3.986959
tp127
a(S'Solve_Succeeded'
p128
I43
F3.9865501566194816
F3.161369
tp129
a(S'Solve_Succeeded'
p130
I59
F4.093124368614803
F4.029176
tp131
a(S'Solve_Succeeded'
p132
I71
F3.9548952453220956
F4.785204
tp133
a(S'Solve_Succeeded'
p134
I80
F3.98210043778026
F5.318062
tp135
a(S'Solve_Succeeded'
p136
I61
F4.041027903876888
F4.610661
tp137
a(S'Solve_Succeeded'
p138
I155
F3.93079794819856
F11.070908
tp139
a(S'Solve_Succeeded'
p140
I145
F3.9289740164568627
F8.514555
tp141
a(S'Solve_Succeeded'
p142
I169
F3.9642592816515783
F12.692237
tp143
a(S'Solve_Succeeded'
p144
I56
F4.009941162172678
F4.075924
tp145
a(S'Solve_Succeeded'
p146
I56
F4.079246820223725
F3.711714
tp147
a(S'Infeasible_Problem_Detected'
p148
I283
F3.9979039616928365
F28.02164
tp149
a(S'Solve_Succeeded'
p150
I59
F3.933815481882435
F3.787664
tp151
a(S'Solve_Succeeded'
p152
I59
F4.106637937333043
F4.386
tp153
a(S'Solve_Succeeded'
p154
I106
F4.05699050284619
F7.235682
tp155
a(S'Solve_Succeeded'
p156
I76
F4.11025397780343
F4.962334
tp157
a(S'Solve_Succeeded'
p158
I45
F3.931813112886994
F2.724046
tp159
a(S'Solve_Succeeded'
p160
I75
F3.9930135213441287
F4.95582
tp161
a(S'Solve_Succeeded'
p162
I72
F3.960005997816354
F3.911583
tp163
a(S'Solve_Succeeded'
p164
I45
F3.985446962882873
F3.0093
tp165
a(S'Solve_Succeeded'
p166
I25
F3.9707976413665174
F1.52102
tp167
a(g11
I369
F0.0
F30.108596
tp168
a(S'Solve_Succeeded'
p169
I112
F3.969250037203899
F8.668314
tp170
a(S'Solve_Succeeded'
p171
I95
F4.018603129719234
F6.007442
tp172
a(S'Solve_Succeeded'
p173
I35
F3.9312628810732315
F2.445128
tp174
a(S'Solve_Succeeded'
p175
I72
F4.021287895507218
F5.160737
tp176
a(S'Solve_Succeeded'
p177
I158
F4.181261440521892
F10.793391
tp178
a(S'Solve_Succeeded'
p179
I43
F4.078890230825023
F2.826362
tp180
a(S'Solve_Succeeded'
p181
I50
F3.912193261387285
F4.196383
tp182
a(S'Solve_Succeeded'
p183
I119
F3.919694233832642
F7.290464
tp184
a(S'Solve_Succeeded'
p185
I59
F3.9480927314286136
F4.489629
tp186
a(g11
I392
F0.0
F30.095566
tp187
a(S'Solve_Succeeded'
p188
I50
F4.025094957033445
F3.65894
tp189
a(S'Solve_Succeeded'
p190
I209
F3.9726254775655256
F18.550582
tp191
a(g11
I407
F0.0
F30.15693
tp192
a(S'Solve_Succeeded'
p193
I57
F3.948528121516177
F3.783115
tp194
a(S'Solve_Succeeded'
p195
I132
F4.088965369463236
F7.244225
tp196
a(S'Solve_Succeeded'
p197
I121
F4.103335447182346
F8.088824
tp198
a(S'Solve_Succeeded'
p199
I73
F3.973096405633781
F4.350876
tp200
a(S'Solve_Succeeded'
p201
I71
F4.034631095110086
F5.010397
tp202
a(g11
I336
F0.0
F30.121066
tp203
a(g11
I321
F0.0
F30.12609
tp204
a(S'Solve_Succeeded'
p205
I51
F3.977985400780406
F3.721856
tp206
a(S'Solve_Succeeded'
p207
I58
F3.959926047160197
F4.422105
tp208
a(g11
I408
F0.0
F30.073195
tp209
a(S'Solve_Succeeded'
p210
I53
F3.9855616891049097
F4.301239
tp211
a(S'Solve_Succeeded'
p212
I53
F4.082229392885174
F3.978278
tp213
a(g11
I221
F0.0
F30.093068
tp214
a(S'Solve_Succeeded'
p215
I135
F4.089365337539644
F12.03408
tp216
a(g11
I360
F0.0
F30.12509
tp217
a(S'Solve_Succeeded'
p218
I220
F4.152869462401843
F18.683175
tp219
a(S'Solve_Succeeded'
p220
I42
F4.053726093053732
F2.820015
tp221
a(S'Solve_Succeeded'
p222
I170
F3.9613624001779306
F9.909695
tp223
a(S'Solve_Succeeded'
p224
I167
F4.1337822069421994
F12.957875
tp225
a(S'Solve_Succeeded'
p226
I47
F4.01251236663657
F3.638777
tp227
a(S'Solve_Succeeded'
p228
I69
F4.022915959892536
F4.338248
tp229
a(S'Solve_Succeeded'
p230
I57
F3.9360802244931956
F3.811481
tp231
a(S'Solve_Succeeded'
p232
I71
F4.039565480629101
F4.719808
tp233
a(S'Solve_Succeeded'
p234
I44
F4.014273578822385
F2.610641
tp235
a(g11
I292
F0.0
F30.1518
tp236
a(S'Solve_Succeeded'
p237
I44
F3.9675037636116564
F2.510828
tp238
a(S'Solve_Succeeded'
p239
I76
F3.9988902501021366
F4.73913
tp240
a(S'Solve_Succeeded'
p241
I55
F3.9368175562692693
F4.308904
tp242
a(S'Solve_Succeeded'
p243
I121
F4.1529863418877575
F8.673164
tp244
a(S'Solve_Succeeded'
p245
I94
F4.072055866441042
F7.574622
tp246
a(S'Solve_Succeeded'
p247
I105
F3.990168171013322
F6.7289
tp248
a(S'Solve_Succeeded'
p249
I41
F3.918218311367078
F3.00703
tp250
a(g11
I378
F0.0
F30.104397
tp251
a(g11
I367
F0.0
F30.174904
tp252
a(S'Solve_Succeeded'
p253
I44
F3.97421774888714
F3.339406
tp254
a(S'Solve_Succeeded'
p255
I116
F4.075153021780657
F7.97433
tp256
a(S'Solve_Succeeded'
p257
I58
F4.062714323575104
F3.439353
tp258
a(g11
I283
F0.0
F30.075783
tp259
a(g11
I342
F0.0
F30.082449
tp260
a(g11
I399
F0.0
F30.132934
tp261
a(S'Solve_Succeeded'
p262
I161
F3.928965731804721
F12.352754
tp263
a(S'Solve_Succeeded'
p264
I93
F3.943065302023793
F6.673711
tp265
a(S'Solve_Succeeded'
p266
I63
F3.968957483392121
F3.986306
tp267
a(S'Solve_Succeeded'
p268
I54
F3.949028969555715
F3.527807
tp269
a(S'Solve_Succeeded'
p270
I53
F4.028805232119804
F3.692001
tp271
a(S'Solve_Succeeded'
p272
I68
F3.981341363161652
F4.974795
tp273
a(S'Solve_Succeeded'
p274
I124
F4.098362506594282
F8.470047
tp275
a(S'Solve_Succeeded'
p276
I50
F3.9292664457449242
F3.03081
tp277
a(S'Solve_Succeeded'
p278
I122
F4.073437975701173
F7.426341
tp279
a(S'Solve_Succeeded'
p280
I68
F3.977914030464249
F4.550575
tp281
a(g11
I342
F0.0
F30.135843
tp282
a(S'Solve_Succeeded'
p283
I43
F4.040730990296619
F2.626087
tp284
a(S'Solve_Succeeded'
p285
I125
F3.971372542541621
F8.149459
tp286
a(S'Solve_Succeeded'
p287
I70
F3.91022320619047
F5.098472
tp288
a(g11
I316
F0.0
F30.244484
tp289
a(S'Solve_Succeeded'
p290
I82
F4.019065528253325
F5.122014
tp291
a(S'Solve_Succeeded'
p292
I155
F3.949721262623251
F13.017952
tp293
a(S'Solve_Succeeded'
p294
I159
F4.068276867369843
F12.906695
tp295
a(S'Solve_Succeeded'
p296
I81
F3.9353551098907786
F4.924396
tp297
a(g11
I335
F0.0
F30.090015
tp298
a(S'Solve_Succeeded'
p299
I188
F3.94414577491385
F16.316837
tp300
a(S'Solve_Succeeded'
p301
I102
F4.172595474052418
F8.815259
tp302
a(S'Solve_Succeeded'
p303
I131
F3.9437371541740367
F9.640136
tp304
a(S'Solve_Succeeded'
p305
I95
F4.071121491687653
F6.255919
tp306
a(g11
I352
F0.0
F30.17352
tp307
a(S'Solve_Succeeded'
p308
I48
F3.938397563547603
F3.556386
tp309
a(S'Solve_Succeeded'
p310
I74
F3.9564943528074323
F5.247226
tp311
a(S'Solve_Succeeded'
p312
I76
F3.985353943534639
F5.148649
tp313
a(S'Solve_Succeeded'
p314
I80
F4.059641866043681
F5.644907
tp315
a(S'Solve_Succeeded'
p316
I36
F3.9816393066843254
F2.761417
tp317
a(S'Solve_Succeeded'
p318
I48
F3.9900351432502137
F3.232213
tp319
a(S'Solve_Succeeded'
p320
I44
F4.139900936616976
F2.99258
tp321
a(S'Solve_Succeeded'
p322
I43
F3.9304903163025395
F3.142593
tp323
a(S'Solve_Succeeded'
p324
I140
F3.976333423875695
F11.417622
tp325
a(S'Solve_Succeeded'
p326
I98
F4.114005425572141
F6.912716
tp327
a(S'Solve_Succeeded'
p328
I52
F3.902644853684811
F3.188131
tp329
a(S'Solve_Succeeded'
p330
I90
F3.9648916441712445
F4.882265
tp331
a(S'Solve_Succeeded'
p332
I158
F3.907503598069067
F13.578539
tp333
a(S'Solve_Succeeded'
p334
I210
F3.9287850500408985
F17.123779
tp335
a(g11
I288
F0.0
F30.101048
tp336
a(S'Solve_Succeeded'
p337
I70
F4.098580785303212
F4.351495
tp338
a(g11
I383
F0.0
F30.124506
tp339
a(S'Solve_Succeeded'
p340
I60
F3.9497076844027776
F3.515281
tp341
a(S'Solve_Succeeded'
p342
I239
F4.127796510546108
F20.47857
tp343
a(g11
I335
F0.0
F30.114585
tp344
a(S'Solve_Succeeded'
p345
I72
F4.048504199860031
F5.436791
tp346
a(S'Solve_Succeeded'
p347
I64
F4.0571725387161655
F3.896017
tp348
a(S'Solve_Succeeded'
p349
I215
F3.9731172457901116
F16.159893
tp350
a(S'Solve_Succeeded'
p351
I42
F3.973901283130641
F3.032393
tp352
a(S'Solve_Succeeded'
p353
I38
F4.107234113080629
F2.769795
tp354
a(S'Solve_Succeeded'
p355
I54
F4.001823887197519
F3.441326
tp356
a(g11
I420
F0.0
F30.107022
tp357
a(S'Solve_Succeeded'
p358
I90
F4.095304084682702
F6.261084
tp359
a(g11
I380
F0.0
F30.204257
tp360
a(S'Solve_Succeeded'
p361
I210
F3.981848314488284
F14.190983
tp362
a(S'Solve_Succeeded'
p363
I76
F3.9396797229573135
F4.594891
tp364
a(S'Solve_Succeeded'
p365
I128
F4.086511569296919
F8.385999
tp366
a(g11
I350
F0.0
F30.121905
tp367
a(S'Solve_Succeeded'
p368
I92
F4.212491856568893
F6.528276
tp369
a(S'Solve_Succeeded'
p370
I94
F4.0838266242045185
F6.08431
tp371
a(g11
I377
F0.0
F30.143553
tp372
a(S'Solve_Succeeded'
p373
I188
F3.9875435097792145
F16.509615
tp374
a(S'Solve_Succeeded'
p375
I59
F3.994451062259046
F3.332757
tp376
a(S'Solve_Succeeded'
p377
I127
F4.002571267504481
F8.0025
tp378
a(g11
I332
F0.0
F30.107632
tp379
a(S'Solve_Succeeded'
p380
I171
F3.895861497981148
F15.628925
tp381
a(S'Solve_Succeeded'
p382
I259
F4.086235246337189
F19.429755
tp383
a(S'Solve_Succeeded'
p384
I46
F4.02080321207683
F2.88548
tp385
a(S'Solve_Succeeded'
p386
I73
F4.0211731745429535
F4.97178
tp387
a(S'Solve_Succeeded'
p388
I96
F3.96262218609187
F6.138994
tp389
a(S'Solve_Succeeded'
p390
I165
F4.105420576025412
F11.506481
tp391
a(S'Solve_Succeeded'
p392
I65
F3.9477024144433526
F4.573197
tp393
a(S'Solve_Succeeded'
p394
I96
F3.9578208022714363
F5.968013
tp395
a(g11
I435
F0.0
F30.118307
tp396
a(S'Infeasible_Problem_Detected'
p397
I187
F4.1596392875441905
F22.105036
tp398
a(g11
I342
F0.0
F30.108519
tp399
a(S'Solve_Succeeded'
p400
I70
F4.020167516539946
F4.824253
tp401
a(g11
I383
F0.0
F30.124822
tp402
a(S'Solve_Succeeded'
p403
I114
F4.010893444731252
F8.932227
tp404
a(S'Solve_Succeeded'
p405
I66
F4.001012624442843
F4.024591
tp406
a(S'Solve_Succeeded'
p407
I98
F4.149054316362091
F6.754188
tp408
a(S'Solve_Succeeded'
p409
I166
F4.1706782863703475
F11.253046
tp410
a(S'Solve_Succeeded'
p411
I104
F4.0088881713828926
F7.862768
tp412
a(S'Solve_Succeeded'
p413
I120
F4.069615392331722
F8.574852
tp414
a(S'Solve_Succeeded'
p415
I67
F3.964019829129483
F4.20803
tp416
a(S'Solve_Succeeded'
p417
I206
F4.018758472988818
F15.275894
tp418
a(S'Solve_Succeeded'
p419
I44
F4.087076641199988
F3.315937
tp420
a(S'Solve_Succeeded'
p421
I36
F3.9328576587806143
F2.832575
tp422
a(S'Solve_Succeeded'
p423
I60
F4.049086318165056
F3.703948
tp424
a(S'Solve_Succeeded'
p425
I130
F4.111034810575721
F8.254133
tp426
a(S'Solve_Succeeded'
p427
I49
F3.9492948979121203
F3.517128
tp428
a(g11
I263
F0.0
F30.144069
tp429
a(S'Solve_Succeeded'
p430
I57
F3.9367798395781977
F4.38221
tp431
a(g11
I396
F0.0
F30.118412
tp432
a(S'Solve_Succeeded'
p433
I56
F3.950497469643371
F3.503775
tp434
a(S'Solve_Succeeded'
p435
I273
F4.139670261263694
F17.221687
tp436
a(S'Solve_Succeeded'
p437
I61
F3.921826538822094
F4.509639
tp438
a(S'Solve_Succeeded'
p439
I35
F3.9326222461848666
F2.174155
tp440
a(S'Solve_Succeeded'
p441
I59
F4.08021910033969
F3.853243
tp442
a(g11
I372
F0.0
F30.1338
tp443
a(S'Solve_Succeeded'
p444
I96
F4.058463619231261
F7.901246
tp445
a(S'Solve_Succeeded'
p446
I35
F3.9581340493343116
F2.593136
tp447
a(S'Solve_Succeeded'
p448
I45
F4.090376926710152
F3.448249
tp449
a(g11
I225
F0.0
F30.147905
tp450
a(g11
I379
F0.0
F30.129351
tp451
a(S'Solve_Succeeded'
p452
I201
F4.0244953652912105
F13.320278
tp453
a(S'Solve_Succeeded'
p454
I102
F4.04849432077504
F6.737324
tp455
a(S'Solve_Succeeded'
p456
I33
F3.962780922263931
F2.368012
tp457
a(S'Solve_Succeeded'
p458
I54
F4.0642853948321
F3.556076
tp459
a(S'Infeasible_Problem_Detected'
p460
I310
F4.44585721974705
F28.008964
tp461
a(S'Solve_Succeeded'
p462
I71
F4.069552525004441
F4.591284
tp463
a(S'Solve_Succeeded'
p464
I115
F3.9862517110058837
F9.188626
tp465
a(g11
I387
F0.0
F30.148776
tp466
a(S'Solve_Succeeded'
p467
I147
F4.016490458459508
F9.070042
tp468
a(S'Solve_Succeeded'
p469
I61
F3.994686797446134
F3.675223
tp470
a(S'Solve_Succeeded'
p471
I38
F4.034105005846525
F2.852077
tp472
a(S'Solve_Succeeded'
p473
I72
F3.927569818614064
F5.367011
tp474
a(S'Solve_Succeeded'
p475
I41
F4.015310369314951
F2.961673
tp476
a(S'Solve_Succeeded'
p477
I84
F4.1338668348785745
F4.542135
tp478
a(S'Solve_Succeeded'
p479
I51
F3.955616778257261
F3.168086
tp480
a(S'Solve_Succeeded'
p481
I151
F3.974234996603153
F11.582308
tp482
a(S'Solve_Succeeded'
p483
I47
F4.106718577951323
F3.143908
tp484
a(S'Solve_Succeeded'
p485
I65
F3.9598692211862447
F3.938489
tp486
a(S'Solve_Succeeded'
p487
I344
F4.213301089961313
F28.014476
tp488
a(g11
I431
F0.0
F30.152669
tp489
a(S'Solve_Succeeded'
p490
I59
F3.9458537887078107
F4.503143
tp491
a(S'Solve_Succeeded'
p492
I231
F4.047019660310696
F22.766148
tp493
a(S'Solve_Succeeded'
p494
I93
F4.055893216196925
F5.461096
tp495
a(S'Solve_Succeeded'
p496
I100
F3.9609629547441063
F6.100419
tp497
a(S'Solve_Succeeded'
p498
I162
F4.070407605566613
F13.98721
tp499
a(S'Solve_Succeeded'
p500
I68
F3.8963930309497092
F4.419115
tp501
a(S'Solve_Succeeded'
p502
I81
F4.028964305392312
F4.420473
tp503
a(S'Solve_Succeeded'
p504
I313
F4.041054921137645
F23.387371
tp505
a(g11
I380
F0.0
F30.167029
tp506
a(S'Infeasible_Problem_Detected'
p507
I144
F4.18757326726782
F20.07214
tp508
a(S'Solve_Succeeded'
p509
I212
F4.015060926293923
F18.774224
tp510
a(S'Solve_Succeeded'
p511
I61
F3.935660620801883
F3.322578
tp512
a(S'Solve_Succeeded'
p513
I72
F3.972835347478206
F5.428944
tp514
a(S'Solve_Succeeded'
p515
I58
F4.104373439171517
F3.778697
tp516
a(S'Solve_Succeeded'
p517
I88
F3.9414962492232446
F5.524667
tp518
a(g11
I331
F0.0
F30.106198
tp519
a(S'Solve_Succeeded'
p520
I37
F4.048563902762745
F2.519899
tp521
a(g11
I412
F0.0
F30.189188
tp522
a(S'Solve_Succeeded'
p523
I33
F3.930308582735243
F1.918452
tp524
a(S'Solve_Succeeded'
p525
I51
F3.9345153015622736
F3.443434
tp526
a(S'Solve_Succeeded'
p527
I55
F4.059005312993028
F3.912711
tp528
a(S'Solve_Succeeded'
p529
I126
F4.029585264241636
F7.889806
tp530
a(S'Solve_Succeeded'
p531
I43
F3.9449175954568148
F2.784694
tp532
a(S'Solve_Succeeded'
p533
I106
F4.039406278882244
F6.846569
tp534
a(S'Solve_Succeeded'
p535
I56
F3.9478026399820423
F4.18639
tp536
a(S'Solve_Succeeded'
p537
I78
F4.12039132997423
F6.384883
tp538
a(S'Solve_Succeeded'
p539
I53
F4.0106855961106405
F2.629133
tp540
a(S'Solve_Succeeded'
p541
I40
F3.945451521295289
F2.787104
tp542
a(S'Solve_Succeeded'
p543
I173
F4.174677779668325
F12.463178
tp544
a(g11
I366
F0.0
F30.150927
tp545
a(g11
I376
F0.0
F30.13166
tp546
a(S'Solve_Succeeded'
p547
I52
F4.0412649396607
F2.839153
tp548
a(g11
I353
F0.0
F30.119421
tp549
a(S'Solve_Succeeded'
p550
I87
F3.9354740868768907
F5.566654
tp551
a(g11
I317
F0.0
F30.147057
tp552
a(g11
I243
F0.0
F30.122926
tp553
a(S'Solve_Succeeded'
p554
I60
F4.08662217005444
F3.409016
tp555
a(g11
I325
F0.0
F30.087587
tp556
a(S'Solve_Succeeded'
p557
I35
F4.050077081585276
F2.419301
tp558
a(g11
I354
F0.0
F30.226568
tp559
a(S'Solve_Succeeded'
p560
I63
F4.022944665861555
F4.220364
tp561
a(g11
I329
F0.0
F30.112238
tp562
a(S'Solve_Succeeded'
p563
I69
F4.114648069485963
F4.995211
tp564
a(g11
I431
F0.0
F30.131838
tp565
a(S'Solve_Succeeded'
p566
I45
F3.943610806520816
F3.13755
tp567
a(S'Solve_Succeeded'
p568
I56
F4.034961630101685
F4.318705
tp569
a(S'Solve_Succeeded'
p570
I106
F4.173486950244385
F6.668622
tp571
a(g11
I316
F0.0
F30.224971
tp572
a(g11
I375
F0.0
F30.129052
tp573
a(S'Solve_Succeeded'
p574
I84
F3.934903146474459
F5.940035
tp575
a(S'Solve_Succeeded'
p576
I111
F3.972318479969905
F7.210081
tp577
a(S'Solve_Succeeded'
p578
I94
F3.9128061028887293
F5.610117
tp579
a(S'Solve_Succeeded'
p580
I168
F3.971780596077523
F14.78528
tp581
a(S'Solve_Succeeded'
p582
I30
F3.9347369805585473
F2.08273
tp583
a(S'Solve_Succeeded'
p584
I57
F4.002595683121272
F3.235554
tp585
a(S'Solve_Succeeded'
p586
I48
F4.025829395572153
F3.477912
tp587
a(S'Solve_Succeeded'
p588
I84
F4.034791702226675
F5.561935
tp589
a(g11
I417
F0.0
F30.137274
tp590
a(S'Solve_Succeeded'
p591
I86
F4.002585317763871
F7.006642
tp592
a(S'Solve_Succeeded'
p593
I52
F3.9719307365511347
F3.309524
tp594
a(S'Solve_Succeeded'
p595
I126
F3.9838495174301314
F8.933171
tp596
a(S'Solve_Succeeded'
p597
I129
F3.9713449809421473
F7.368253
tp598
a(S'Solve_Succeeded'
p599
I170
F3.9170633592241946
F12.108771
tp600
a(g11
I381
F0.0
F30.151002
tp601
a(g11
I376
F0.0
F30.106317
tp602
a(S'Solve_Succeeded'
p603
I158
F4.004938899177448
F9.88122
tp604
a(S'Solve_Succeeded'
p605
I90
F4.02976938182104
F5.467252
tp606
a(S'Solve_Succeeded'
p607
I72
F3.944944475604207
F6.261212
tp608
a(S'Solve_Succeeded'
p609
I50
F4.107130853746589
F3.802078
tp610
a(S'Solve_Succeeded'
p611
I49
F4.104529678301325
F3.429768
tp612
a(S'Solve_Succeeded'
p613
I220
F3.9724793018597087
F17.82492
tp614
a(S'Solve_Succeeded'
p615
I47
F3.9277447459879333
F3.301424
tp616
a(S'Solve_Succeeded'
p617
I45
F4.0356510856188805
F3.503309
tp618
a(g11
I382
F0.0
F30.211005
tp619
a(S'Solve_Succeeded'
p620
I108
F4.086115041521098
F9.415452
tp621
a(S'Solve_Succeeded'
p622
I188
F4.01704772418948
F19.843948
tp623
a(S'Solve_Succeeded'
p624
I242
F4.079125302928991
F23.100754
tp625
a(g11
I389
F0.0
F30.100925
tp626
a(S'Solve_Succeeded'
p627
I72
F4.013557813908299
F5.035541
tp628
a(S'Solve_Succeeded'
p629
I249
F4.008389408802651
F21.062107
tp630
a(S'Solve_Succeeded'
p631
I57
F3.93690023856184
F4.116333
tp632
a(S'Solve_Succeeded'
p633
I308
F4.0913078439246595
F29.796417
tp634
a(S'Solve_Succeeded'
p635
I41
F4.039804387229907
F2.739667
tp636
a(S'Solve_Succeeded'
p637
I147
F3.9490255160390375
F9.951178
tp638
a(S'Solve_Succeeded'
p639
I77
F3.94167499856155
F4.425175
tp640
a(S'Solve_Succeeded'
p641
I77
F3.993203895598922
F5.156643
tp642
a(g11
I426
F0.0
F30.143837
tp643
a(g11
I351
F0.0
F30.061361
tp644
a(S'Solve_Succeeded'
p645
I46
F3.9780368916463855
F3.026314
tp646
a(S'Solve_Succeeded'
p647
I39
F4.080325061094582
F2.470138
tp648
a(S'Solve_Succeeded'
p649
I126
F4.170517303567439
F9.044691
tp650
a(S'Solve_Succeeded'
p651
I94
F4.166548585605515
F6.78395
tp652
a(S'Solve_Succeeded'
p653
I115
F3.8911535993682227
F7.563901
tp654
a(S'Solve_Succeeded'
p655
I126
F4.122880152878813
F8.28122
tp656
a(S'Solve_Succeeded'
p657
I86
F4.059155284243624
F5.209209
tp658
a(S'Solve_Succeeded'
p659
I68
F4.035960561430767
F4.484436
tp660
a(S'Solve_Succeeded'
p661
I217
F4.015989434768546
F18.506393
tp662
a(S'Solve_Succeeded'
p663
I116
F4.139911364921656
F8.605456
tp664
a(S'Solve_Succeeded'
p665
I94
F3.966366595456646
F5.718819
tp666
a(g11
I382
F0.0
F30.122473
tp667
a(S'Solve_Succeeded'
p668
I115
F4.022516508196281
F11.882108
tp669
a(g11
I350
F0.0
F30.141874
tp670
a(S'Solve_Succeeded'
p671
I51
F3.935571854388891
F4.109065
tp672
a(S'Solve_Succeeded'
p673
I37
F4.043625183280134
F2.683179
tp674
a(g11
I335
F0.0
F30.057898
tp675
a(S'Solve_Succeeded'
p676
I53
F3.9234711596857843
F3.207734
tp677
a(S'Solve_Succeeded'
p678
I52
F3.947557730170806
F3.501206
tp679
a(S'Solve_Succeeded'
p680
I87
F3.9166085306718323
F6.833874
tp681
a(S'Solve_Succeeded'
p682
I51
F3.92039395850991
F3.638662
tp683
a(g11
I369
F0.0
F30.192219
tp684
a(S'Solve_Succeeded'
p685
I155
F4.15746259557673
F11.566391
tp686
a(g11
I323
F0.0
F30.11766
tp687
a(S'Solve_Succeeded'
p688
I93
F4.039975923842142
F5.742752
tp689
a(g11
I315
F0.0
F30.069935
tp690
a(S'Solve_Succeeded'
p691
I90
F3.9206169868592067
F6.137022
tp692
a(S'Solve_Succeeded'
p693
I44
F4.0492598327711535
F2.669803
tp694
a(S'Solve_Succeeded'
p695
I69
F4.05183431609095
F4.197634
tp696
a(S'Solve_Succeeded'
p697
I91
F4.093407202238259
F7.732243
tp698
a(S'Solve_Succeeded'
p699
I68
F4.05971878581658
F4.345452
tp700
a(S'Solve_Succeeded'
p701
I286
F3.983584250024687
F21.798583
tp702
a(S'Solve_Succeeded'
p703
I89
F4.001141216238457
F6.721812
tp704
a(S'Solve_Succeeded'
p705
I54
F3.9456640972292853
F3.533117
tp706
a(g11
I342
F0.0
F30.113229
tp707
a(S'Solve_Succeeded'
p708
I157
F4.188383945382669
F12.633724
tp709
a(S'Solve_Succeeded'
p710
I44
F3.9832531319686084
F3.198266
tp711
a(S'Solve_Succeeded'
p712
I115
F4.106198754228737
F10.665104
tp713
a(g11
I393
F0.0
F30.146076
tp714
a(g11
I381
F0.0
F30.112074
tp715
a(S'Solve_Succeeded'
p716
I110
F4.0562047256608
F7.852312
tp717
a(S'Solve_Succeeded'
p718
I183
F3.9845178398749286
F14.756688
tp719
a(g11
I303
F0.0
F30.182751
tp720
a(S'Solve_Succeeded'
p721
I88
F4.020732647710146
F5.9604
tp722
a(S'Solve_Succeeded'
p723
I71
F3.965410635955165
F5.202842
tp724
a(S'Solve_Succeeded'
p725
I351
F4.043890155680906
F26.266803
tp726
a(S'Solve_Succeeded'
p727
I63
F3.94367318615493
F4.477006
tp728
a(S'Solve_Succeeded'
p729
I363
F4.062348839947318
F27.980296
tp730
a(g11
I429
F0.0
F30.159755
tp731
a(S'Solve_Succeeded'
p732
I189
F4.01078341385046
F14.296538
tp733
a(S'Solve_Succeeded'
p734
I50
F4.062958265199425
F3.839707
tp735
a(S'Solve_Succeeded'
p736
I45
F3.938058822738609
F3.867411
tp737
a(S'Solve_Succeeded'
p738
I74
F4.118979833376769
F3.802298
tp739
a(g11
I319
F0.0
F30.181848
tp740
a(S'Solve_Succeeded'
p741
I87
F4.045876280921539
F5.564221
tp742
a(g11
I311
F0.0
F30.156039
tp743
a(g11
I373
F0.0
F30.204492
tp744
a(S'Solve_Succeeded'
p745
I145
F3.9575919442307996
F10.439928
tp746
a(S'Solve_Succeeded'
p747
I150
F4.03670631349156
F10.959517
tp748
a(g11
I434
F0.0
F30.105354
tp749
a(S'Solve_Succeeded'
p750
I606
F4.061998389029106
F27.901925
tp751
a(S'Solve_Succeeded'
p752
I109
F3.944761324604138
F8.93864
tp753
a(S'Solve_Succeeded'
p754
I258
F3.914935112410978
F23.521082
tp755
a(S'Solve_Succeeded'
p756
I120
F4.033685498957338
F10.803116
tp757
a(S'Solve_Succeeded'
p758
I80
F3.9872712139980084
F5.119267
tp759
a(S'Solve_Succeeded'
p760
I32
F4.066689392141573
F2.040609
tp761
a(g11
I392
F0.0
F30.099979
tp762
a(S'Solve_Succeeded'
p763
I61
F3.9574422951534247
F4.918321
tp764
a(S'Solve_Succeeded'
p765
I100
F3.984407599314132
F6.611722
tp766
a(S'Solve_Succeeded'
p767
I136
F4.014653449942261
F8.831116
tp768
a(S'Solve_Succeeded'
p769
I61
F4.191652866936826
F4.054627
tp770
a(g11
I380
F0.0
F30.122867
tp771
a(S'Solve_Succeeded'
p772
I222
F3.9110804416937768
F17.574056
tp773
a(S'Solve_Succeeded'
p774
I69
F4.039142430217189
F4.275072
tp775
a(S'Solve_Succeeded'
p776
I39
F4.016242620584048
F2.327859
tp777
a(S'Solve_Succeeded'
p778
I41
F4.121998828098717
F2.790192
tp779
a(g11
I265
F0.0
F30.100585
tp780
a(S'Solve_Succeeded'
p781
I56
F3.944770400803476
F4.227711
tp782
a(g11
I404
F0.0
F30.116592
tp783
a(S'Solve_Succeeded'
p784
I214
F3.985637236189538
F17.441115
tp785
a(S'Solve_Succeeded'
p786
I128
F4.102516425533118
F9.342403
tp787
a(S'Solve_Succeeded'
p788
I136
F3.9260685729658014
F10.12348
tp789
a(S'Solve_Succeeded'
p790
I121
F4.133024106863577
F7.009575
tp791
a(S'Solve_Succeeded'
p792
I92
F4.072148351282539
F5.85329
tp793
a(g11
I404
F0.0
F30.109991
tp794
a(S'Solve_Succeeded'
p795
I69
F3.893255949823563
F4.76169
tp796
a(g11
I340
F0.0
F30.090462
tp797
a(S'Solve_Succeeded'
p798
I61
F4.071213864732604
F3.783021
tp799
a(S'Solve_Succeeded'
p800
I142
F4.0737053510444605
F8.33546
tp801
a(S'Solve_Succeeded'
p802
I69
F4.044740710581451
F4.775946
tp803
a(g11
I301
F0.0
F30.279101
tp804
a(S'Solve_Succeeded'
p805
I74
F4.096446724619531
F4.787905
tp806
a(g11
I379
F0.0
F30.129949
tp807
a(S'Solve_Succeeded'
p808
I63
F3.917379947803812
F4.699013
tp809
a(g11
I416
F0.0
F30.152713
tp810
a(S'Solve_Succeeded'
p811
I311
F3.928563204005168
F29.520295
tp812
a(S'Solve_Succeeded'
p813
I56
F4.0388363259991795
F4.134202
tp814
a(g11
I339
F0.0
F30.115639
tp815
a(S'Solve_Succeeded'
p816
I27
F3.9397429197098535
F1.687292
tp817
a(g11
I376
F0.0
F30.089377
tp818
a(S'Solve_Succeeded'
p819
I66
F4.036239548005733
F4.373046
tp820
a(S'Solve_Succeeded'
p821
I46
F4.029436904427061
F3.000236
tp822
a(S'Solve_Succeeded'
p823
I76
F3.955454499077514
F5.016932
tp824
a(S'Solve_Succeeded'
p825
I118
F4.2392944147907565
F8.602269
tp826
a(S'Solve_Succeeded'
p827
I50
F3.973953315524186
F3.556534
tp828
a(g11
I421
F0.0
F30.131917
tp829
a(S'Solve_Succeeded'
p830
I50
F3.9889663849384513
F3.236651
tp831
a(S'Solve_Succeeded'
p832
I227
F3.985918613361817
F20.989184
tp833
a(S'Solve_Succeeded'
p834
I73
F4.054291927048943
F5.027615
tp835
a(S'Solve_Succeeded'
p836
I107
F4.009801442063655
F6.016181
tp837
a(S'Solve_Succeeded'
p838
I54
F4.080487313863424
F3.622103
tp839
a(S'Solve_Succeeded'
p840
I138
F4.130443098952973
F8.425773
tp841
a(S'Solve_Succeeded'
p842
I68
F3.935000703773868
F4.092509
tp843
a(g11
I374
F0.0
F30.126493
tp844
a(S'Solve_Succeeded'
p845
I42
F3.9945036881180975
F2.69406
tp846
a(S'Solve_Succeeded'
p847
I51
F3.994986072169871
F3.139831
tp848
a(S'Solve_Succeeded'
p849
I274
F4.0011038374025585
F19.66763
tp850
a(S'Solve_Succeeded'
p851
I69
F4.112293072974668
F4.93906
tp852
a(S'Solve_Succeeded'
p853
I36
F3.9538945457081685
F2.486343
tp854
a(g11
I410
F0.0
F30.100434
tp855
a(S'Solve_Succeeded'
p856
I68
F4.013769034154878
F4.670425
tp857
a(S'Solve_Succeeded'
p858
I76
F3.9346753044355274
F4.306625
tp859
a(g11
I350
F0.0
F30.108008
tp860
a(S'Solve_Succeeded'
p861
I94
F3.961586593744281
F6.473837
tp862
a(S'Solve_Succeeded'
p863
I198
F3.950741248361282
F12.973524
tp864
a(S'Solve_Succeeded'
p865
I93
F3.934576711732517
F7.315048
tp866
a(g11
I317
F0.0
F30.187784
tp867
a(S'Solve_Succeeded'
p868
I94
F4.176796655642394
F8.677513
tp869
a(S'Solve_Succeeded'
p870
I103
F4.094223141389251
F7.172617
tp871
a(S'Solve_Succeeded'
p872
I47
F4.001412618924479
F3.505886
tp873
a(S'Solve_Succeeded'
p874
I99
F3.9379229594025706
F6.24698
tp875
a(S'Solve_Succeeded'
p876
I101
F4.177043945560749
F8.754822
tp877
a(S'Solve_Succeeded'
p878
I99
F4.084168678861023
F8.34705
tp879
a(S'Solve_Succeeded'
p880
I62
F3.965329198615478
F4.153059
tp881
a(S'Solve_Succeeded'
p882
I52
F3.998957391856334
F3.472494
tp883
a(S'Solve_Succeeded'
p884
I73
F3.9643333409121806
F5.880422
tp885
a(S'Solve_Succeeded'
p886
I91
F3.957654896512242
F5.362273
tp887
a(S'Solve_Succeeded'
p888
I76
F4.024975120412898
F4.786666
tp889
a(g11
I376
F0.0
F30.185177
tp890
a(g11
I413
F0.0
F30.15888
tp891
a(S'Solve_Succeeded'
p892
I83
F4.0737174782936165
F5.154076
tp893
a(S'Solve_Succeeded'
p894
I279
F3.907589730137725
F25.928892
tp895
a(S'Solve_Succeeded'
p896
I49
F4.131918424508075
F3.739056
tp897
a(S'Solve_Succeeded'
p898
I84
F4.030494315951177
F5.533195
tp899
a(S'Infeasible_Problem_Detected'
p900
I368
F6.339418681995186
F28.09122
tp901
a(g11
I349
F0.0
F30.087276
tp902
a(S'Solve_Succeeded'
p903
I54
F3.9684371017562823
F4.017764
tp904
a(S'Solve_Succeeded'
p905
I72
F4.047986953823736
F4.471973
tp906
a(S'Solve_Succeeded'
p907
I63
F3.9465705309162336
F4.539621
tp908
a(S'Solve_Succeeded'
p909
I109
F3.9428662053543406
F7.753305
tp910
a(S'Solve_Succeeded'
p911
I67
F4.00909685897797
F4.327137
tp912
a(S'Solve_Succeeded'
p913
I73
F3.9111066009801934
F5.370789
tp914
a(S'Solve_Succeeded'
p915
I108
F4.02343380104764
F6.689999
tp916
a(S'Solve_Succeeded'
p917
I75
F4.087479278522529
F5.071849
tp918
a(S'Solve_Succeeded'
p919
I84
F3.938579106753241
F5.910465
tp920
a(S'Solve_Succeeded'
p921
I105
F3.94687554286738
F7.123626
tp922
a(S'Solve_Succeeded'
p923
I46
F4.054495504243858
F3.404514
tp924
a(g11
I412
F0.0
F30.114669
tp925
a(S'Solve_Succeeded'
p926
I70
F3.968438968481338
F4.247538
tp927
a(S'Solve_Succeeded'
p928
I58
F3.9250634271504916
F4.148962
tp929
a(S'Solve_Succeeded'
p930
I109
F4.067277749400746
F6.514763
tp931
a(S'Solve_Succeeded'
p932
I198
F4.059582510850098
F15.684525
tp933
a(S'Solve_Succeeded'
p934
I78
F4.084521762175931
F5.873824
tp935
a(g11
I397
F0.0
F30.170272
tp936
a(g11
I345
F0.0
F30.141132
tp937
a(S'Solve_Succeeded'
p938
I263
F3.893647682391189
F24.422911
tp939
a(g11
I312
F0.0
F30.093452
tp940
a(S'Solve_Succeeded'
p941
I45
F4.007923210591463
F2.622718
tp942
a(S'Solve_Succeeded'
p943
I42
F3.976859009007836
F3.195974
tp944
a(S'Solve_Succeeded'
p945
I50
F4.087993765454852
F2.956574
tp946
a(S'Solve_Succeeded'
p947
I156
F4.070964757851438
F12.731345
tp948
a(g11
I318
F0.0
F30.113003
tp949
a(S'Solve_Succeeded'
p950
I74
F3.9368626241200406
F5.617508
tp951
a(S'Solve_Succeeded'
p952
I97
F4.084447939339075
F6.136863
tp953
a(g11
I406
F0.0
F30.134496
tp954
a(S'Solve_Succeeded'
p955
I42
F3.941071288344462
F2.207575
tp956
a(S'Solve_Succeeded'
p957
I157
F4.070232899390262
F10.546947
tp958
a(g11
I337
F0.0
F30.176772
tp959
a(g11
I447
F0.0
F30.150019
tp960
a(S'Solve_Succeeded'
p961
I61
F4.107728801538322
F5.411576
tp962
a(S'Solve_Succeeded'
p963
I102
F4.076431005631169
F6.161427
tp964
a(S'Solve_Succeeded'
p965
I34
F3.923630818800897
F2.230503
tp966
a(S'Solve_Succeeded'
p967
I85
F3.9932602579300798
F5.143132
tp968
a(S'Solve_Succeeded'
p969
I202
F4.030216908338611
F14.030989
tp970
a(S'Solve_Succeeded'
p971
I101
F3.9257769799276807
F7.586046
tp972
a(S'Solve_Succeeded'
p973
I211
F4.060605878808624
F16.204581
tp974
a(S'Solve_Succeeded'
p975
I100
F4.139875114348366
F5.794597
tp976
a(S'Solve_Succeeded'
p977
I175
F4.120225022643288
F15.718172
tp978
a(g11
I437
F0.0
F30.117067
tp979
a(S'Solve_Succeeded'
p980
I66
F3.9618527457926414
F4.077385
tp981
a(S'Solve_Succeeded'
p982
I82
F4.064387916581742
F5.4041
tp983
a(g11
I397
F0.0
F30.102114
tp984
a(S'Solve_Succeeded'
p985
I130
F3.917917346062265
F9.055467
tp986
a(S'Solve_Succeeded'
p987
I97
F4.032049666988496
F6.980445
tp988
a(S'Solve_Succeeded'
p989
I100
F4.061554672559784
F6.335795
tp990
a(S'Solve_Succeeded'
p991
I77
F4.01771824460988
F5.985669
tp992
a(S'Solve_Succeeded'
p993
I228
F3.994819532570279
F20.293041
tp994
a(S'Solve_Succeeded'
p995
I84
F3.9608767773300633
F6.371313
tp996
a(S'Infeasible_Problem_Detected'
p997
I318
F4.34647475198147
F24.991075
tp998
a(S'Solve_Succeeded'
p999
I43
F4.035980800646312
F2.713166
tp1000
a(S'Solve_Succeeded'
p1001
I46
F4.007013548448862
F2.626956
tp1002
a(S'Solve_Succeeded'
p1003
I133
F4.110168025581608
F11.007993
tp1004
a(S'Solve_Succeeded'
p1005
I102
F4.064735327980214
F6.862011
tp1006
a(S'Solve_Succeeded'
p1007
I49
F4.081753100046825
F3.419493
tp1008
a(S'Solve_Succeeded'
p1009
I85
F3.9684145890156084
F5.719442
tp1010
a(S'Solve_Succeeded'
p1011
I72
F3.993239095246425
F4.317688
tp1012
a(S'Solve_Succeeded'
p1013
I36
F4.092375820940261
F2.542872
tp1014
a(S'Solve_Succeeded'
p1015
I65
F4.037874894308845
F4.609082
tp1016
a(S'Solve_Succeeded'
p1017
I51
F4.014301553196878
F3.411565
tp1018
a(S'Solve_Succeeded'
p1019
I112
F3.9360807434103253
F8.446015
tp1020
a(S'Solve_Succeeded'
p1021
I73
F3.9800809257402388
F5.086853
tp1022
a(S'Solve_Succeeded'
p1023
I56
F3.9370764197590886
F3.540978
tp1024
a(g11
I382
F0.0
F30.125073
tp1025
a(S'Solve_Succeeded'
p1026
I79
F3.996358931640789
F5.918837
tp1027
a(S'Solve_Succeeded'
p1028
I233
F4.00114064849081
F15.938122
tp1029
a(S'Solve_Succeeded'
p1030
I130
F4.044124651605394
F7.733074
tp1031
a(S'Solve_Succeeded'
p1032
I68
F4.013631652403953
F3.959519
tp1033
a(g11
I339
F0.0
F30.081931
tp1034
a(S'Solve_Succeeded'
p1035
I101
F4.086548886270037
F6.115267
tp1036
a(S'Solve_Succeeded'
p1037
I97
F4.205044794845528
F7.989721
tp1038
a(S'Solve_Succeeded'
p1039
I126
F4.167912299209092
F6.52309
tp1040
a(S'Solve_Succeeded'
p1041
I111
F4.05460741628141
F7.630661
tp1042
a(S'Solve_Succeeded'
p1043
I30
F4.004062848856528
F2.138853
tp1044
a(S'Solve_Succeeded'
p1045
I97
F4.042922459707835
F6.849491
tp1046
a(S'Solve_Succeeded'
p1047
I53
F3.9390196569331235
F4.341156
tp1048
a(S'Solve_Succeeded'
p1049
I104
F3.948157588727489
F7.735958
tp1050
a(S'Solve_Succeeded'
p1051
I36
F3.941537514074312
F2.544038
tp1052
a(S'Solve_Succeeded'
p1053
I35
F4.024161626992258
F2.493398
tp1054
a(S'Solve_Succeeded'
p1055
I77
F3.9455154387656686
F6.170618
tp1056
a(g11
I361
F0.0
F30.134654
tp1057
a(S'Solve_Succeeded'
p1058
I190
F4.026211683782789
F11.059964
tp1059
a(g11
I325
F0.0
F30.093107
tp1060
a(g11
I383
F0.0
F30.102137
tp1061
a(S'Solve_Succeeded'
p1062
I106
F4.056446571158441
F7.414488
tp1063
a(S'Solve_Succeeded'
p1064
I137
F4.064992385974887
F9.390585
tp1065
a(S'Solve_Succeeded'
p1066
I112
F4.198935693897992
F8.326811
tp1067
a(S'Solve_Succeeded'
p1068
I72
F3.962407299226372
F4.512146
tp1069
a(S'Solve_Succeeded'
p1070
I60
F3.9745995947830313
F3.892003
tp1071
a(S'Solve_Succeeded'
p1072
I50
F3.9588279642678557
F3.108313
tp1073
a(S'Solve_Succeeded'
p1074
I38
F3.919578171540421
F2.438642
tp1075
a(S'Solve_Succeeded'
p1076
I82
F4.059573867040245
F5.020481
tp1077
a(S'Solve_Succeeded'
p1078
I85
F4.042426492725066
F5.882368
tp1079
a(S'Solve_Succeeded'
p1080
I78
F4.129156479202768
F5.409252
tp1081
a(S'Solve_Succeeded'
p1082
I167
F4.08455034758745
F11.866182
tp1083
a(S'Solve_Succeeded'
p1084
I47
F3.9865519936892206
F2.982077
tp1085
a(g11
I405
F0.0
F30.227208
tp1086
a(S'Solve_Succeeded'
p1087
I105
F4.290101873468058
F8.215937
tp1088
a(S'Solve_Succeeded'
p1089
I49
F3.9598534545916775
F3.524687
tp1090
a(S'Solve_Succeeded'
p1091
I47
F4.084397677845244
F3.740978
tp1092
a(S'Solve_Succeeded'
p1093
I77
F4.091344840856686
F5.57632
tp1094
a(S'Solve_Succeeded'
p1095
I41
F3.9138393627927512
F3.022842
tp1096
a(S'Solve_Succeeded'
p1097
I64
F4.175640434163481
F4.381705
tp1098
a(S'Solve_Succeeded'
p1099
I99
F4.117727527793264
F6.52493
tp1100
a(S'Solve_Succeeded'
p1101
I131
F3.992943808120356
F10.122473
tp1102
a(S'Solve_Succeeded'
p1103
I59
F3.989496079541381
F3.4222
tp1104
a(S'Solve_Succeeded'
p1105
I85
F3.9655019049554947
F6.570333
tp1106
a(S'Solve_Succeeded'
p1107
I49
F4.06807132437239
F3.558644
tp1108
a(S'Solve_Succeeded'
p1109
I136
F4.0960124284398045
F9.330389
tp1110
a(S'Solve_Succeeded'
p1111
I110
F3.971538581170678
F9.572836
tp1112
a(S'Solve_Succeeded'
p1113
I50
F4.033941655571889
F3.31989
tp1114
a(S'Solve_Succeeded'
p1115
I36
F4.00424924146909
F2.573671
tp1116
a(S'Solve_Succeeded'
p1117
I242
F3.9890086070759576
F21.111291
tp1118
a(g11
I393
F0.0
F30.122462
tp1119
a(S'Solve_Succeeded'
p1120
I87
F3.9641925050524156
F7.127487
tp1121
a(S'Solve_Succeeded'
p1122
I72
F3.9286849472113965
F5.044066
tp1123
a(S'Solve_Succeeded'
p1124
I157
F3.9186852769776346
F9.756138
tp1125
a(g11
I386
F0.0
F30.122872
tp1126
a(S'Solve_Succeeded'
p1127
I31
F4.00078664907029
F2.209166
tp1128
a(S'Solve_Succeeded'
p1129
I66
F3.983975093088309
F6.0616
tp1130
a(S'Solve_Succeeded'
p1131
I55
F4.025514770550423
F3.735775
tp1132
a(S'Solve_Succeeded'
p1133
I151
F3.994986097347654
F10.386962
tp1134
a(g11
I369
F0.0
F30.22328
tp1135
a(S'Solve_Succeeded'
p1136
I125
F4.016051939620751
F8.173594
tp1137
a(S'Solve_Succeeded'
p1138
I95
F4.069108909244217
F7.148863
tp1139
a(g11
I372
F0.0
F30.158672
tp1140
a(S'Solve_Succeeded'
p1141
I150
F3.9072950212251287
F10.724358
tp1142
a(S'Solve_Succeeded'
p1143
I259
F4.0163929774465
F22.83042
tp1144
a(S'Solve_Succeeded'
p1145
I53
F3.9498604405860216
F3.771975
tp1146
a(S'Solve_Succeeded'
p1147
I70
F4.121578365898267
F4.367422
tp1148
a(S'Solve_Succeeded'
p1149
I28
F3.91972825276913
F1.959708
tp1150
a(g11
I272
F0.0
F30.15903
tp1151
a(S'Solve_Succeeded'
p1152
I203
F4.232086031486308
F16.671873
tp1153
a(S'Solve_Succeeded'
p1154
I143
F4.139476041083452
F8.597032
tp1155
a(S'Solve_Succeeded'
p1156
I116
F4.05476135835352
F8.500387
tp1157
a(S'Solve_Succeeded'
p1158
I164
F3.9453929720020846
F14.351925
tp1159
a(S'Solve_Succeeded'
p1160
I137
F4.191095767963621
F9.226082
tp1161
a(S'Solve_Succeeded'
p1162
I79
F4.09047592073996
F5.125683
tp1163
a(S'Solve_Succeeded'
p1164
I65
F3.927052568449078
F6.988531
tp1165
a(S'Solve_Succeeded'
p1166
I157
F4.03980864464101
F11.037834
tp1167
a(g11
I421
F0.0
F30.119091
tp1168
a(S'Solve_Succeeded'
p1169
I105
F4.023715815831427
F6.965971
tp1170
a(S'Solve_Succeeded'
p1171
I61
F4.172174657154592
F4.796499
tp1172
a(S'Solve_Succeeded'
p1173
I74
F4.184686656731254
F6.051676
tp1174
a(S'Solve_Succeeded'
p1175
I200
F4.076100660134855
F16.847059
tp1176
a(S'Solve_Succeeded'
p1177
I151
F3.9797885501636476
F12.389405
tp1178
a(S'Solve_Succeeded'
p1179
I67
F4.051329885470667
F4.144843
tp1180
a(S'Solve_Succeeded'
p1181
I80
F4.054620352645932
F4.569885
tp1182
a(S'Solve_Succeeded'
p1183
I101
F4.0086065930990085
F8.057577
tp1184
a(S'Solve_Succeeded'
p1185
I252
F3.991209051885901
F20.841423
tp1186
a(S'Solve_Succeeded'
p1187
I76
F3.9167220450545686
F5.501552
tp1188
a(S'Solve_Succeeded'
p1189
I46
F3.9622639898302747
F3.205441
tp1190
a(S'Solve_Succeeded'
p1191
I72
F3.9309423298894637
F4.280812
tp1192
a(S'Solve_Succeeded'
p1193
I191
F4.165547702488628
F12.84936
tp1194
a(S'Solve_Succeeded'
p1195
I71
F3.9776947277100327
F4.230298
tp1196
a(S'Solve_Succeeded'
p1197
I49
F3.9622048754767207
F2.836888
tp1198
a(S'Solve_Succeeded'
p1199
I322
F4.004350234656257
F28.920163
tp1200
a(S'Solve_Succeeded'
p1201
I66
F4.057858127339872
F5.062975
tp1202
a(g11
I387
F0.0
F30.114091
tp1203
a(S'Solve_Succeeded'
p1204
I91
F4.031259055964057
F5.907928
tp1205
a(S'Solve_Succeeded'
p1206
I122
F4.162212063734892
F8.592994
tp1207
a(g11
I365
F0.0
F30.20067
tp1208
a(S'Solve_Succeeded'
p1209
I179
F4.102264613110397
F15.814106
tp1210
a(S'Solve_Succeeded'
p1211
I82
F4.144502469321233
F5.792656
tp1212
a(S'Solve_Succeeded'
p1213
I36
F3.93467368621275
F2.23403
tp1214
a(S'Solve_Succeeded'
p1215
I87
F3.9095195809715833
F5.718841
tp1216
a(S'Solve_Succeeded'
p1217
I376
F4.149523029923456
F28.772681
tp1218
a(S'Solve_Succeeded'
p1219
I64
F4.0399696242757654
F4.45546
tp1220
a(S'Solve_Succeeded'
p1221
I74
F4.035787504274815
F4.080928
tp1222
a(S'Solve_Succeeded'
p1223
I37
F3.926183196038798
F2.622505
tp1224
a(g11
I339
F0.0
F30.141608
tp1225
a(S'Solve_Succeeded'
p1226
I72
F4.126081428017687
F4.697608
tp1227
a(g11
I402
F0.0
F30.139302
tp1228
a(g11
I239
F0.0
F30.188009
tp1229
a(S'Solve_Succeeded'
p1230
I95
F4.260582278165953
F6.55653
tp1231
a(g11
I321
F0.0
F30.151933
tp1232
a(S'Solve_Succeeded'
p1233
I101
F3.9737827785717372
F6.459094
tp1234
a(g11
I376
F0.0
F30.144656
tp1235
a(g11
I384
F0.0
F30.12084
tp1236
a(S'Solve_Succeeded'
p1237
I69
F3.997921458315906
F6.115178
tp1238
a(S'Solve_Succeeded'
p1239
I61
F3.993498210121702
F4.015345
tp1240
a(g11
I402
F0.0
F30.078904
tp1241
a(S'Solve_Succeeded'
p1242
I39
F3.9156426082135924
F2.816319
tp1243
a(S'Solve_Succeeded'
p1244
I215
F4.139914340815518
F15.217216
tp1245
a(g11
I340
F0.0
F30.085158
tp1246
a(g11
I367
F0.0
F30.110088
tp1247
a(S'Solve_Succeeded'
p1248
I159
F4.093143296641698
F9.996345
tp1249
a(S'Solve_Succeeded'
p1250
I78
F3.964928769739647
F4.491889
tp1251
a(g11
I417
F0.0
F30.178802
tp1252
a(S'Solve_Succeeded'
p1253
I54
F3.9243864404099145
F3.287221
tp1254
a(S'Solve_Succeeded'
p1255
I267
F3.9034610362888853
F22.437916
tp1256
a(S'Solve_Succeeded'
p1257
I89
F3.9448511398681068
F6.085696
tp1258
a(S'Solve_Succeeded'
p1259
I52
F3.9636393390462836
F4.368319
tp1260
a(S'Solve_Succeeded'
p1261
I123
F4.006360537720821
F10.308805
tp1262
a(g11
I405
F0.0
F30.150486
tp1263
a(S'Solve_Succeeded'
p1264
I68
F3.992789283569316
F4.525886
tp1265
a(S'Solve_Succeeded'
p1266
I68
F3.9484939575578535
F4.259192
tp1267
a(S'Solve_Succeeded'
p1268
I151
F3.911766040855958
F12.960018
tp1269
a(S'Solve_Succeeded'
p1270
I68
F4.04465127021983
F3.73159
tp1271
a(g11
I305
F0.0
F30.133799
tp1272
a(S'Solve_Succeeded'
p1273
I70
F4.082892239976649
F4.509036
tp1274
a(g11
I201
F0.0
F30.111521
tp1275
a(S'Solve_Succeeded'
p1276
I47
F4.092215100368068
F3.40405
tp1277
a(g11
I475
F0.0
F30.112416
tp1278
a(S'Solve_Succeeded'
p1279
I77
F3.9139589705675317
F4.530083
tp1280
a(S'Solve_Succeeded'
p1281
I251
F3.9431462993875557
F22.851953
tp1282
a(S'Solve_Succeeded'
p1283
I36
F4.048662739319713
F2.567362
tp1284
a(g11
I382
F0.0
F30.120633
tp1285
a(S'Solve_Succeeded'
p1286
I179
F3.909805751769753
F18.810449
tp1287
a(S'Solve_Succeeded'
p1288
I89
F3.9222031037420324
F4.838437
tp1289
a(S'Solve_Succeeded'
p1290
I192
F4.223229672145436
F15.012093
tp1291
a(g11
I310
F0.0
F30.148653
tp1292
a(S'Solve_Succeeded'
p1293
I62
F4.071741987428129
F3.057221
tp1294
a(g11
I343
F0.0
F30.144406
tp1295
a(S'Solve_Succeeded'
p1296
I48
F4.056142145783252
F3.286153
tp1297
a(S'Solve_Succeeded'
p1298
I88
F4.003197394175215
F5.195216
tp1299
a(S'Solve_Succeeded'
p1300
I34
F3.9368191289019174
F2.349948
tp1301
a(S'Solve_Succeeded'
p1302
I46
F3.925297247185161
F3.125844
tp1303
a(S'Solve_Succeeded'
p1304
I132
F4.108814426346525
F9.785632
tp1305
a(S'Solve_Succeeded'
p1306
I51
F3.9747691365237063
F2.853086
tp1307
a(S'Solve_Succeeded'
p1308
I71
F3.983148627970425
F3.986437
tp1309
a(S'Solve_Succeeded'
p1310
I46
F4.065850402056501
F3.532218
tp1311
a(S'Solve_Succeeded'
p1312
I74
F4.017390566644508
F4.972379
tp1313
a(S'Solve_Succeeded'
p1314
I83
F4.031527246091551
F5.155452
tp1315
a(S'Solve_Succeeded'
p1316
I95
F4.117408255408262
F6.420054
tp1317
a(S'Solve_Succeeded'
p1318
I111
F4.043089501319928
F9.070587
tp1319
a(S'Solve_Succeeded'
p1320
I99
F3.9903076951234078
F6.937697
tp1321
a(S'Solve_Succeeded'
p1322
I87
F4.115291600551307
F6.387652
tp1323
a(S'Solve_Succeeded'
p1324
I80
F4.085398767439041
F5.787574
tp1325
a(g11
I412
F0.0
F30.090061
tp1326
a(S'Solve_Succeeded'
p1327
I109
F4.209850747198857
F8.266807
tp1328
a(S'Solve_Succeeded'
p1329
I40
F4.063362719556221
F2.426324
tp1330
a(S'Solve_Succeeded'
p1331
I40
F4.047280426380196
F2.741616
tp1332
a(g11
I363
F0.0
F30.108724
tp1333
a(g11
I345
F0.0
F30.109022
tp1334
a(g11
I418
F0.0
F30.146256
tp1335
a(g11
I375
F0.0
F30.09552
tp1336
a(g11
I380
F0.0
F30.099308
tp1337
a(S'Solve_Succeeded'
p1338
I52
F4.003477612911889
F3.931042
tp1339
a(S'Solve_Succeeded'
p1340
I59
F4.0606254330218
F3.359725
tp1341
a(S'Infeasible_Problem_Detected'
p1342
I349
F5.403479112699447
F24.834881
tp1343
a(S'Solve_Succeeded'
p1344
I133
F4.036701537377829
F8.075745
tp1345
a(S'Solve_Succeeded'
p1346
I47
F4.017653109198517
F2.983875
tp1347
a(g11
I361
F0.0
F30.1156
tp1348
a(S'Solve_Succeeded'
p1349
I33
F3.929718018594902
F2.361267
tp1350
a(S'Solve_Succeeded'
p1351
I117
F3.93985012196222
F7.001524
tp1352
a(S'Infeasible_Problem_Detected'
p1353
I269
F4.988993156133445
F23.244251
tp1354
a(S'Solve_Succeeded'
p1355
I57
F4.053016964053801
F3.457267
tp1356
a(S'Solve_Succeeded'
p1357
I306
F4.018824524683354
F24.324501
tp1358
a(S'Solve_Succeeded'
p1359
I36
F3.9595191225624955
F2.685222
tp1360
a(S'Solve_Succeeded'
p1361
I130
F3.94440208180233
F11.584817
tp1362
a(S'Solve_Succeeded'
p1363
I211
F4.01543132970421
F21.762309
tp1364
a(S'Solve_Succeeded'
p1365
I232
F4.030494318349306
F18.817798
tp1366
a(S'Solve_Succeeded'
p1367
I68
F3.9192571347514176
F3.973223
tp1368
a(S'Solve_Succeeded'
p1369
I82
F3.962895877962497
F6.560674
tp1370
a(S'Solve_Succeeded'
p1371
I35
F3.990783389122474
F2.484349
tp1372
a(S'Solve_Succeeded'
p1373
I76
F4.071154150452017
F5.253611
tp1374
a(S'Solve_Succeeded'
p1375
I92
F3.982674615667068
F5.748071
tp1376
a(S'Solve_Succeeded'
p1377
I114
F3.9675746024264
F6.45516
tp1378
a(g11
I302
F0.0
F30.106913
tp1379
a(S'Solve_Succeeded'
p1380
I71
F3.9500041712663916
F6.189883
tp1381
a(S'Solve_Succeeded'
p1382
I67
F3.969312757536485
F4.840883
tp1383
a(S'Solve_Succeeded'
p1384
I45
F3.9540807978455126
F3.27251
tp1385
a(S'Solve_Succeeded'
p1386
I39
F3.9124301550313803
F2.801155
tp1387
a(S'Solve_Succeeded'
p1388
I221
F3.9830837009706936
F12.597528
tp1389
a(g11
I397
F0.0
F30.105365
tp1390
a(g11
I406
F0.0
F30.161445
tp1391
a(S'Solve_Succeeded'
p1392
I122
F3.9672302461958093
F7.528052
tp1393
a(S'Solve_Succeeded'
p1394
I52
F3.9593058097813043
F3.430115
tp1395
a(g11
I395
F0.0
F30.180414
tp1396
a(S'Solve_Succeeded'
p1397
I140
F4.0332466221059065
F9.983923
tp1398
a(S'Solve_Succeeded'
p1399
I68
F3.99601242687969
F4.690293
tp1400
a(g11
I414
F0.0
F30.21737
tp1401
a(S'Solve_Succeeded'
p1402
I109
F4.131075281824726
F7.869107
tp1403
a(S'Solve_Succeeded'
p1404
I104
F4.191512680388322
F7.973501
tp1405
a(S'Solve_Succeeded'
p1406
I286
F3.9465406629466355
F23.028661
tp1407
a(S'Solve_Succeeded'
p1408
I47
F3.961368343650566
F2.920856
tp1409
a(g11
I387
F0.0
F30.223078
tp1410
a(g11
I425
F0.0
F30.131461
tp1411
a(S'Solve_Succeeded'
p1412
I62
F4.129558871029439
F3.896345
tp1413
a(S'Solve_Succeeded'
p1414
I225
F4.0899997749550945
F18.673719
tp1415
a(g11
I401
F0.0
F30.127931
tp1416
a(S'Solve_Succeeded'
p1417
I189
F4.055776616880839
F11.875937
tp1418
a(S'Solve_Succeeded'
p1419
I62
F4.011044470941861
F4.627588
tp1420
a(S'Solve_Succeeded'
p1421
I88
F4.0574844319205425
F5.236628
tp1422
a(S'Solve_Succeeded'
p1423
I87
F4.070654833378389
F5.053475
tp1424
a(S'Solve_Succeeded'
p1425
I47
F4.040255242928376
F2.91858
tp1426
a(S'Solve_Succeeded'
p1427
I96
F4.024796026831337
F5.437847
tp1428
a(S'Solve_Succeeded'
p1429
I103
F3.951404115902824
F7.769245
tp1430
a(S'Solve_Succeeded'
p1431
I32
F3.9903325418821396
F2.151795
tp1432
a(S'Solve_Succeeded'
p1433
I88
F3.987753374793362
F6.182773
tp1434
a(S'Solve_Succeeded'
p1435
I59
F4.0465822342378575
F4.458124
tp1436
a(S'Solve_Succeeded'
p1437
I67
F3.99862056394307
F3.988805
tp1438
a(g11
I336
F0.0
F30.144013
tp1439
a(S'Solve_Succeeded'
p1440
I162
F3.9573311384422714
F12.696587
tp1441
a(S'Solve_Succeeded'
p1442
I248
F4.222787957764974
F16.576971
tp1443
a(S'Solve_Succeeded'
p1444
I164
F4.103120135440165
F10.320207
tp1445
a(S'Solve_Succeeded'
p1446
I48
F4.027909910570735
F3.391526
tp1447
a(S'Solve_Succeeded'
p1448
I123
F4.095771244805883
F9.080651
tp1449
a(S'Solve_Succeeded'
p1450
I80
F4.035921762658372
F5.406712
tp1451
a(S'Solve_Succeeded'
p1452
I186
F4.094970266746682
F14.874456
tp1453
a(S'Solve_Succeeded'
p1454
I46
F4.0031490644534
F2.835626
tp1455
a(S'Solve_Succeeded'
p1456
I48
F3.9438881792584435
F3.202746
tp1457
a(S'Solve_Succeeded'
p1458
I334
F4.013860613641172
F25.32755
tp1459
a(S'Solve_Succeeded'
p1460
I79
F3.973149925263171
F4.702125
tp1461
a(S'Solve_Succeeded'
p1462
I94
F4.025693574217663
F7.99249
tp1463
a(g11
I374
F0.0
F30.122577
tp1464
a(S'Solve_Succeeded'
p1465
I62
F4.024172791965398
F3.638767
tp1466
a(g11
I328
F0.0
F30.079169
tp1467
a(S'Solve_Succeeded'
p1468
I57
F3.963152588624551
F4.536089
tp1469
a(S'Solve_Succeeded'
p1470
I104
F3.9377602740989754
F7.528311
tp1471
a(g11
I411
F0.0
F30.130395
tp1472
a(S'Solve_Succeeded'
p1473
I49
F4.0773320272299705
F3.066008
tp1474
a(S'Solve_Succeeded'
p1475
I97
F3.9419225583490984
F5.56902
tp1476
a(S'Solve_Succeeded'
p1477
I41
F3.9365081383830707
F3.090077
tp1478
a(S'Solve_Succeeded'
p1479
I61
F4.119604619805765
F4.227564
tp1480
a(S'Solve_Succeeded'
p1481
I60
F4.061330418398934
F4.433141
tp1482
a(S'Solve_Succeeded'
p1483
I92
F4.163788332671766
F6.859858
tp1484
a(S'Solve_Succeeded'
p1485
I56
F4.05590080015445
F3.507704
tp1486
a(S'Solve_Succeeded'
p1487
I113
F3.9279273026904904
F8.213215
tp1488
a(S'Solve_Succeeded'
p1489
I82
F4.026286756161553
F5.132253
tp1490
a(S'Solve_Succeeded'
p1491
I32
F3.955562100603896
F2.275611
tp1492
a(S'Solve_Succeeded'
p1493
I87
F3.9729053991676935
F6.744109
tp1494
a(S'Solve_Succeeded'
p1495
I48
F4.063962133853863
F3.200998
tp1496
a(g11
I406
F0.0
F30.119346
tp1497
a(S'Solve_Succeeded'
p1498
I59
F3.9265310583730306
F3.454519
tp1499
a(S'Solve_Succeeded'
p1500
I135
F3.946261829014186
F9.9066
tp1501
a(S'Solve_Succeeded'
p1502
I88
F4.04212501776024
F5.84983
tp1503
a(g11
I398
F0.0
F30.35912
tp1504
a(S'Solve_Succeeded'
p1505
I70
F3.978621627866975
F5.07387
tp1506
a(S'Solve_Succeeded'
p1507
I93
F4.07467969147948
F6.27495
tp1508
a(S'Solve_Succeeded'
p1509
I133
F3.9701914825323574
F7.362915
tp1510
a(S'Solve_Succeeded'
p1511
I31
F3.923427089176793
F2.285795
tp1512
a(g11
I284
F0.0
F30.106283
tp1513
a(S'Solve_Succeeded'
p1514
I114
F4.115558473987133
F8.022802
tp1515
a(S'Solve_Succeeded'
p1516
I81
F4.077452737462914
F5.815164
tp1517
a(S'Solve_Succeeded'
p1518
I143
F3.9956213154623903
F9.57975
tp1519
a(S'Solve_Succeeded'
p1520
I159
F3.960161231837284
F14.735886
tp1521
a(S'Solve_Succeeded'
p1522
I110
F4.10220458436927
F7.389868
tp1523
a(S'Solve_Succeeded'
p1524
I218
F4.064779445590586
F13.306719
tp1525
a(S'Solve_Succeeded'
p1526
I63
F4.085406432039604
F4.570849
tp1527
a(S'Solve_Succeeded'
p1528
I48
F3.9142869710705788
F3.089253
tp1529
a(S'Solve_Succeeded'
p1530
I41
F4.007673199643114
F2.862319
tp1531
a(S'Solve_Succeeded'
p1532
I91
F4.108400177629644
F5.805406
tp1533
a(g11
I390
F0.0
F30.117609
tp1534
a(S'Solve_Succeeded'
p1535
I50
F4.101324663493531
F3.683951
tp1536
a(S'Solve_Succeeded'
p1537
I126
F4.066908440308117
F9.443038
tp1538
a(S'Solve_Succeeded'
p1539
I60
F4.025880977185676
F3.452962
tp1540
a(S'Solve_Succeeded'
p1541
I63
F3.93811746478702
F4.134074
tp1542
a(g11
I429
F0.0
F30.153476
tp1543
a(g11
I373
F0.0
F30.137229
tp1544
a(S'Solve_Succeeded'
p1545
I110
F4.0603512161799715
F6.874965
tp1546
a(g11
I381
F0.0
F30.109615
tp1547
a(S'Solve_Succeeded'
p1548
I87
F3.886881339832548
F6.567022
tp1549
a(S'Solve_Succeeded'
p1550
I107
F4.078462811814288
F7.311007
tp1551
a(S'Solve_Succeeded'
p1552
I107
F3.9081724052021807
F8.292379
tp1553
a(S'Solve_Succeeded'
p1554
I103
F3.90858005044727
F6.740141
tp1555
a(S'Solve_Succeeded'
p1556
I158
F4.256071403530516
F12.701052
tp1557
a(g11
I319
F0.0
F30.235749
tp1558
a(S'Solve_Succeeded'
p1559
I142
F3.9902707214892077
F10.884062
tp1560
a(S'Solve_Succeeded'
p1561
I87
F4.12377410303217
F5.917152
tp1562
a(S'Solve_Succeeded'
p1563
I60
F4.018117904763873
F4.123314
tp1564
a(S'Solve_Succeeded'
p1565
I62
F4.042238242130709
F4.327653
tp1566
a(S'Solve_Succeeded'
p1567
I41
F3.918697735033094
F2.475745
tp1568
a(S'Solve_Succeeded'
p1569
I116
F4.093619785799995
F8.330783
tp1570
a(S'Solve_Succeeded'
p1571
I231
F4.137907925805042
F20.540405
tp1572
a(S'Solve_Succeeded'
p1573
I44
F3.957516736890479
F2.456321
tp1574
a(S'Solve_Succeeded'
p1575
I150
F3.9935017638196553
F13.799688
tp1576
a(S'Solve_Succeeded'
p1577
I44
F4.08581122562993
F3.067437
tp1578
a(S'Solve_Succeeded'
p1579
I53
F3.937395664446444
F3.575099
tp1580
a(S'Solve_Succeeded'
p1581
I63
F3.9919905366918345
F3.542166
tp1582
a(S'Solve_Succeeded'
p1583
I106
F4.058270219497592
F7.780009
tp1584
a(S'Solve_Succeeded'
p1585
I77
F4.026657808897886
F5.208247
tp1586
a(g11
I403
F0.0
F30.128312
tp1587
a(S'Solve_Succeeded'
p1588
I127
F4.1419293703720585
F8.683468
tp1589
a(S'Solve_Succeeded'
p1590
I62
F3.905080790820082
F3.899148
tp1591
a(S'Solve_Succeeded'
p1592
I43
F4.053741620097341
F2.791687
tp1593
a(S'Solve_Succeeded'
p1594
I141
F3.915951146309002
F11.604605
tp1595
a(S'Solve_Succeeded'
p1596
I57
F4.011518792379796
F3.821254
tp1597
a(g11
I418
F0.0
F30.161378
tp1598
a(S'Solve_Succeeded'
p1599
I99
F4.109926350794474
F7.524775
tp1600
a(S'Solve_Succeeded'
p1601
I174
F4.5260769133182395
F12.759581
tp1602
a(S'Solve_Succeeded'
p1603
I43
F3.967818036349812
F2.791308
tp1604
a(S'Solve_Succeeded'
p1605
I68
F3.8987326688728294
F4.735788
tp1606
a(S'Solve_Succeeded'
p1607
I104
F4.087017525581247
F6.742215
tp1608
a(S'Solve_Succeeded'
p1609
I48
F3.9439570705910034
F3.753756
tp1610
a(S'Solve_Succeeded'
p1611
I211
F4.105212199512358
F18.942997
tp1612
a(S'Solve_Succeeded'
p1613
I41
F4.040376383125958
F2.661873
tp1614
a(S'Solve_Succeeded'
p1615
I122
F4.06250774163482
F7.181983
tp1616
a(S'Solve_Succeeded'
p1617
I88
F3.920510665992406
F7.142611
tp1618
a(g11
I381
F0.0
F30.241051
tp1619
a(S'Solve_Succeeded'
p1620
I71
F4.05816011188746
F4.620082
tp1621
a(S'Solve_Succeeded'
p1622
I98
F4.124647413704783
F5.979435
tp1623
a(S'Solve_Succeeded'
p1624
I248
F4.194188542744057
F18.444462
tp1625
a(g11
I371
F0.0
F30.165687
tp1626
a(S'Solve_Succeeded'
p1627
I87
F4.001581516303513
F5.69082
tp1628
a(g11
I308
F0.0
F30.17297
tp1629
a(S'Solve_Succeeded'
p1630
I47
F3.9249515651023383
F3.0204
tp1631
a(g11
I373
F0.0
F30.088943
tp1632
a(S'Solve_Succeeded'
p1633
I53
F4.060468691940766
F3.355364
tp1634
a(g11
I386
F0.0
F30.173017
tp1635
a(S'Solve_Succeeded'
p1636
I84
F3.99823895698831
F4.869967
tp1637
a(S'Solve_Succeeded'
p1638
I69
F3.931323820721611
F5.011341
tp1639
a(S'Solve_Succeeded'
p1640
I38
F3.945937201511937
F2.451051
tp1641
a(g11
I403
F0.0
F30.11036
tp1642
a(S'Solve_Succeeded'
p1643
I178
F3.9227034543674573
F16.214324
tp1644
a(S'Solve_Succeeded'
p1645
I54
F4.07577910044336
F3.888176
tp1646
a(S'Solve_Succeeded'
p1647
I70
F3.914332507311912
F6.572633
tp1648
a(S'Solve_Succeeded'
p1649
I43
F3.988120353494342
F2.671419
tp1650
a(S'Solve_Succeeded'
p1651
I302
F4.016600490393095
F25.609641
tp1652
a(S'Solve_Succeeded'
p1653
I102
F3.992472222103242
F7.916064
tp1654
a(S'Solve_Succeeded'
p1655
I56
F4.020652000968708
F3.670503
tp1656
a(g11
I327
F0.0
F30.103961
tp1657
a(g11
I429
F0.0
F30.111005
tp1658
a(g11
I460
F0.0
F30.092259
tp1659
a(S'Solve_Succeeded'
p1660
I36
F4.024803791224176
F3.465917
tp1661
a(S'Solve_Succeeded'
p1662
I36
F4.005467813424104
F2.309764
tp1663
a(S'Solve_Succeeded'
p1664
I81
F4.077380778938934
F6.145891
tp1665
a(g11
I310
F0.0
F30.11839
tp1666
a(S'Solve_Succeeded'
p1667
I113
F3.9413651356190336
F8.328377
tp1668
a(S'Solve_Succeeded'
p1669
I54
F3.937586113797701
F4.221584
tp1670
a(S'Solve_Succeeded'
p1671
I99
F4.03713344953062
F6.136857
tp1672
a(S'Solve_Succeeded'
p1673
I122
F4.071576047737692
F10.061102
tp1674
a(S'Solve_Succeeded'
p1675
I50
F4.070487766791033
F4.063548
tp1676
a(g11
I316
F0.0
F30.103399
tp1677
a(S'Solve_Succeeded'
p1678
I46
F3.955090183510453
F3.010738
tp1679
a(S'Solve_Succeeded'
p1680
I71
F4.122312441730877
F4.736984
tp1681
a(S'Solve_Succeeded'
p1682
I374
F4.025976756988731
F27.143752
tp1683
a(S'Solve_Succeeded'
p1684
I82
F3.9646615288841462
F5.673526
tp1685
a(S'Solve_Succeeded'
p1686
I79
F4.095762955203069
F6.177712
tp1687
a(g11
I390
F0.0
F30.162725
tp1688
a(S'Solve_Succeeded'
p1689
I137
F4.096137092871392
F9.772984
tp1690
a(S'Solve_Succeeded'
p1691
I63
F4.067848250287109
F4.427516
tp1692
a(S'Solve_Succeeded'
p1693
I365
F4.075260187728331
F29.147909
tp1694
a(S'Solve_Succeeded'
p1695
I193
F4.169201621571188
F13.478116
tp1696
a(S'Solve_Succeeded'
p1697
I74
F4.033608771733961
F6.559108
tp1698
a(S'Solve_Succeeded'
p1699
I92
F4.069072133120718
F6.767046
tp1700
a(S'Solve_Succeeded'
p1701
I89
F4.11689642158816
F5.343624
tp1702
a(g11
I349
F0.0
F30.149177
tp1703
a(g11
I336
F0.0
F30.17642
tp1704
a(S'Solve_Succeeded'
p1705
I50
F3.960962640645798
F3.761378
tp1706
a(S'Solve_Succeeded'
p1707
I56
F3.9684709729156156
F3.319663
tp1708
a(g11
I366
F0.0
F30.183125
tp1709
a(S'Solve_Succeeded'
p1710
I132
F3.9999740539131308
F8.937166
tp1711
a(S'Solve_Succeeded'
p1712
I66
F3.987436852714228
F4.630377
tp1713
a(S'Solve_Succeeded'
p1714
I133
F4.020792052364419
F10.466344
tp1715
a(S'Solve_Succeeded'
p1716
I60
F3.9449590770514593
F3.381024
tp1717
a(S'Solve_Succeeded'
p1718
I215
F4.047394069197871
F16.361707
tp1719
a(S'Solve_Succeeded'
p1720
I82
F3.956887267230685
F5.142402
tp1721
a(S'Solve_Succeeded'
p1722
I87
F4.066735941423322
F5.677739
tp1723
a(g11
I465
F0.0
F30.161739
tp1724
a(S'Solve_Succeeded'
p1725
I97
F3.9141664809666055
F6.02798
tp1726
a(S'Solve_Succeeded'
p1727
I93
F4.088604328786568
F6.461092
tp1728
a(S'Solve_Succeeded'
p1729
I55
F4.0198963892640585
F4.496948
tp1730
a(S'Solve_Succeeded'
p1731
I117
F3.9848953819555772
F8.453308
tp1732
a(S'Solve_Succeeded'
p1733
I41
F4.102912869816487
F2.9561
tp1734
a(S'Solve_Succeeded'
p1735
I40
F3.9369859816052117
F2.673761
tp1736
a(S'Solve_Succeeded'
p1737
I104
F4.011827297464949
F6.158199
tp1738
a(S'Solve_Succeeded'
p1739
I39
F4.0120075419954935
F2.880572
tp1740
a(g11
I408
F0.0
F30.08649
tp1741
a(g11
I402
F0.0
F30.118258
tp1742
a(g11
I377
F0.0
F30.162728
tp1743
a(S'Solve_Succeeded'
p1744
I179
F3.996415943088271
F16.280463
tp1745
a(S'Solve_Succeeded'
p1746
I65
F3.899478441065954
F4.532551
tp1747
a(S'Solve_Succeeded'
p1748
I80
F4.997457549577115
F6.3231
tp1749
a(S'Solve_Succeeded'
p1750
I48
F4.011149050078942
F2.857123
tp1751
a(S'Solve_Succeeded'
p1752
I45
F4.06739113738181
F2.77585
tp1753
a(g11
I291
F0.0
F30.085866
tp1754
a(S'Solve_Succeeded'
p1755
I128
F4.094346189338058
F8.668967
tp1756
a(S'Solve_Succeeded'
p1757
I110
F4.085221581262593
F7.774748
tp1758
a(S'Solve_Succeeded'
p1759
I135
F3.942783001706872
F10.779564
tp1760
a(g11
I378
F0.0
F30.112598
tp1761
a(S'Solve_Succeeded'
p1762
I107
F4.175719587001621
F9.192797
tp1763
a(S'Solve_Succeeded'
p1764
I41
F4.039400576336879
F2.792817
tp1765
a(S'Solve_Succeeded'
p1766
I205
F4.169567694939718
F13.735846
tp1767
a(S'Solve_Succeeded'
p1768
I127
F3.9501479633927694
F11.047892
tp1769
a(S'Solve_Succeeded'
p1770
I232
F4.102000781220155
F18.678042
tp1771
a(S'Solve_Succeeded'
p1772
I57
F4.021368672315895
F4.302793
tp1773
a(S'Solve_Succeeded'
p1774
I50
F3.9867108571829335
F3.32785
tp1775
a(g11
I369
F0.0
F30.1562
tp1776
a(S'Solve_Succeeded'
p1777
I114
F4.064660287918257
F6.948758
tp1778
a(S'Solve_Succeeded'
p1779
I58
F3.9088532718582387
F4.098417
tp1780
a(S'Solve_Succeeded'
p1781
I131
F4.156888849507782
F10.714105
tp1782
a(g11
I390
F0.0
F30.115293
tp1783
a(S'Solve_Succeeded'
p1784
I92
F4.066148264767328
F7.371032
tp1785
a(S'Solve_Succeeded'
p1786
I63
F3.9208802967404677
F4.182598
tp1787
a(g11
I398
F0.0
F30.139913
tp1788
a(S'Solve_Succeeded'
p1789
I148
F3.931788626597989
F12.763233
tp1790
a(S'Solve_Succeeded'
p1791
I33
F4.046694581343419
F2.078762
tp1792
a(S'Solve_Succeeded'
p1793
I104
F4.345349822968916
F7.063519
tp1794
a(g11
I375
F0.0
F30.086611
tp1795
a(S'Solve_Succeeded'
p1796
I113
F3.9998453148621285
F8.449866
tp1797
a(S'Solve_Succeeded'
p1798
I53
F4.089436019102757
F3.278996
tp1799
a(S'Solve_Succeeded'
p1800
I134
F4.108360434763141
F9.262838
tp1801
a(S'Solve_Succeeded'
p1802
I64
F3.9158959914662774
F4.131002
tp1803
a(S'Solve_Succeeded'
p1804
I87
F4.113557389885787
F6.63133
tp1805
a(S'Solve_Succeeded'
p1806
I119
F3.9306977990855194
F9.151479
tp1807
asS'0'
p1808
(lp1809
(S'Solve_Succeeded'
p1810
I67
F4.082968103756566
F6.494413
tp1811
a(g11
I348
F0.0
F30.072139
tp1812
a(S'Solve_Succeeded'
p1813
I81
F3.956257506778867
F9.040895
tp1814
a(g11
I126
F0.0
F30.101049
tp1815
a(S'Solve_Succeeded'
p1816
I61
F4.0634908065380255
F5.146513
tp1817
a(g11
I471
F0.0
F30.087699
tp1818
a(S'Solve_Succeeded'
p1819
I131
F4.180882679511895
F11.796632
tp1820
a(S'Solve_Succeeded'
p1821
I150
F3.9635250586603825
F13.993492
tp1822
a(S'Solve_Succeeded'
p1823
I54
F4.02327665998999
F4.172259
tp1824
a(S'Solve_Succeeded'
p1825
I113
F3.9043865168694483
F9.699056
tp1826
a(S'Solve_Succeeded'
p1827
I94
F4.129670850856109
F6.952379
tp1828
a(S'Solve_Succeeded'
p1829
I100
F3.9413133470950776
F7.70286
tp1830
a(g11
I322
F0.0
F30.091729
tp1831
a(g11
I312
F0.0
F30.084102
tp1832
a(g11
I316
F0.0
F30.104959
tp1833
a(S'Solve_Succeeded'
p1834
I126
F4.023446264555995
F9.333639
tp1835
a(S'Solve_Succeeded'
p1836
I193
F3.957393203253228
F15.960691
tp1837
a(S'Solve_Succeeded'
p1838
I79
F4.117301952853308
F6.996511
tp1839
a(S'Solve_Succeeded'
p1840
I91
F3.9390392948263653
F6.586235
tp1841
a(g11
I318
F0.0
F30.145209
tp1842
a(S'Solve_Succeeded'
p1843
I86
F3.9637245739147366
F7.791335
tp1844
a(S'Solve_Succeeded'
p1845
I139
F3.9801765336279296
F11.453355
tp1846
a(S'Solve_Succeeded'
p1847
I74
F3.989567055873543
F6.66331
tp1848
a(S'Solve_Succeeded'
p1849
I66
F4.073125174234556
F5.024211
tp1850
a(g11
I261
F0.0
F30.072337
tp1851
a(S'Solve_Succeeded'
p1852
I119
F3.975639486898768
F11.235697
tp1853
a(S'Solve_Succeeded'
p1854
I44
F3.91765184749041
F3.57144
tp1855
a(S'Solve_Succeeded'
p1856
I54
F3.98400087665563
F4.513395
tp1857
a(g11
I222
F0.0
F30.174813
tp1858
a(g11
I347
F0.0
F30.070971
tp1859
a(S'Solve_Succeeded'
p1860
I53
F3.914629152755534
F4.126503
tp1861
a(S'Solve_Succeeded'
p1862
I52
F3.965418123565295
F4.282533
tp1863
a(g11
I449
F0.0
F30.12938
tp1864
a(S'Solve_Succeeded'
p1865
I101
F3.9973809700860445
F11.918973
tp1866
a(S'Infeasible_Problem_Detected'
p1867
I211
F4.238835801288264
F29.205039
tp1868
a(S'Solve_Succeeded'
p1869
I111
F3.9217082546231525
F8.392725
tp1870
a(g11
I481
F0.0
F30.141623
tp1871
a(g11
I345
F0.0
F30.130346
tp1872
a(S'Solve_Succeeded'
p1873
I111
F4.05649790018149
F8.708026
tp1874
a(S'Solve_Succeeded'
p1875
I149
F4.162310669971663
F13.677982
tp1876
a(g11
I255
F0.0
F30.102454
tp1877
a(g11
I288
F0.0
F30.165958
tp1878
a(S'Solve_Succeeded'
p1879
I104
F4.058966015785451
F9.85021
tp1880
a(S'Solve_Succeeded'
p1881
I110
F4.068746408153918
F11.802197
tp1882
a(g11
I248
F0.0
F30.105473
tp1883
a(S'Solve_Succeeded'
p1884
I63
F3.9414711122009813
F5.758923
tp1885
a(g11
I311
F0.0
F30.098675
tp1886
a(S'Solve_Succeeded'
p1887
I79
F3.995364608425364
F6.984255
tp1888
a(S'Solve_Succeeded'
p1889
I78
F3.9183602745771244
F7.380466
tp1890
a(S'Solve_Succeeded'
p1891
I87
F4.080795523910716
F6.768409
tp1892
a(S'Solve_Succeeded'
p1893
I214
F3.982784042768008
F15.307752
tp1894
a(S'Solve_Succeeded'
p1895
I64
F4.035928592113144
F5.111263
tp1896
a(g11
I291
F0.0
F30.177419
tp1897
a(S'Solve_Succeeded'
p1898
I158
F4.132193092323092
F15.838589
tp1899
a(S'Solve_Succeeded'
p1900
I80
F3.987683218263691
F6.017735
tp1901
a(S'Solve_Succeeded'
p1902
I101
F4.065372744191805
F9.76746
tp1903
a(S'Solve_Succeeded'
p1904
I69
F4.040619576419879
F5.656533
tp1905
a(S'Solve_Succeeded'
p1906
I101
F3.925354917863678
F10.562437
tp1907
a(g11
I468
F0.0
F30.096161
tp1908
a(S'Solve_Succeeded'
p1909
I45
F3.9770557649337754
F3.401074
tp1910
a(S'Solve_Succeeded'
p1911
I81
F4.084784005605588
F6.717974
tp1912
a(S'Solve_Succeeded'
p1913
I104
F4.010030847984542
F10.043284
tp1914
a(g11
I225
F0.0
F30.102381
tp1915
a(S'Solve_Succeeded'
p1916
I75
F3.9979168808348944
F6.340628
tp1917
a(S'Solve_Succeeded'
p1918
I170
F4.1193325665822735
F14.244706
tp1919
a(S'Solve_Succeeded'
p1920
I73
F4.068788207618444
F5.933674
tp1921
a(S'Solve_Succeeded'
p1922
I76
F3.9780529158479885
F5.515422
tp1923
a(S'Solve_Succeeded'
p1924
I76
F3.9865501566194674
F5.863631
tp1925
a(S'Solve_Succeeded'
p1926
I48
F4.093124368614788
F4.024935
tp1927
a(S'Solve_Succeeded'
p1928
I84
F3.954895245322296
F6.306249
tp1929
a(S'Solve_Succeeded'
p1930
I106
F3.982100437780246
F8.112181
tp1931
a(S'Solve_Succeeded'
p1932
I57
F4.041027903876881
F5.251829
tp1933
a(S'Solve_Succeeded'
p1934
I84
F3.9307979482111284
F7.750014
tp1935
a(S'Solve_Succeeded'
p1936
I109
F3.9289740164568903
F10.494911
tp1937
a(S'Solve_Succeeded'
p1938
I100
F3.9642592816515605
F8.216593
tp1939
a(S'Solve_Succeeded'
p1940
I52
F4.009941162172809
F4.265956
tp1941
a(S'Solve_Succeeded'
p1942
I113
F4.079246820223705
F9.404546
tp1943
a(g11
I323
F0.0
F30.068063
tp1944
a(S'Solve_Succeeded'
p1945
I71
F3.9338154818825126
F5.567818
tp1946
a(S'Solve_Succeeded'
p1947
I42
F4.106637937333095
F3.035026
tp1948
a(g11
I512
F0.0
F30.090419
tp1949
a(S'Solve_Succeeded'
p1950
I147
F4.110253977808182
F14.43216
tp1951
a(S'Solve_Succeeded'
p1952
I79
F3.931813112886975
F7.260698
tp1953
a(S'Solve_Succeeded'
p1954
I105
F3.993013521344149
F9.120495
tp1955
a(S'Solve_Succeeded'
p1956
I135
F3.9600059978164155
F9.419364
tp1957
a(S'Solve_Succeeded'
p1958
I66
F3.9854469628828886
F5.187202
tp1959
a(S'Solve_Succeeded'
p1960
I36
F3.9707976413665147
F2.836039
tp1961
a(g11
I192
F0.0
F30.08442
tp1962
a(S'Solve_Succeeded'
p1963
I85
F3.969250037241679
F7.720742
tp1964
a(S'Solve_Succeeded'
p1965
I164
F4.0186031297191835
F14.388344
tp1966
a(S'Solve_Succeeded'
p1967
I61
F3.9312628810732213
F5.775751
tp1968
a(S'Solve_Succeeded'
p1969
I103
F4.021287895507199
F8.73176
tp1970
a(S'Solve_Succeeded'
p1971
I95
F4.181261440522213
F8.748194
tp1972
a(S'Solve_Succeeded'
p1973
I57
F4.078890230825188
F5.93707
tp1974
a(S'Solve_Succeeded'
p1975
I76
F3.9121932608791945
F6.021675
tp1976
a(S'Solve_Succeeded'
p1977
I71
F3.919694233832635
F5.065881
tp1978
a(S'Solve_Succeeded'
p1979
I76
F3.9480927314286007
F5.676561
tp1980
a(g11
I311
F0.0
F30.110105
tp1981
a(S'Solve_Succeeded'
p1982
I62
F4.025094957034189
F4.819186
tp1983
a(S'Solve_Succeeded'
p1984
I128
F3.9726254775655865
F10.143693
tp1985
a(g11
I331
F0.0
F30.133728
tp1986
a(S'Solve_Succeeded'
p1987
I176
F3.948528121516273
F12.906478
tp1988
a(S'Solve_Succeeded'
p1989
I118
F4.088965369226033
F9.133684
tp1990
a(g11
I232
F0.0
F30.219126
tp1991
a(S'Solve_Succeeded'
p1992
I50
F3.9730964056337683
F4.207458
tp1993
a(S'Solve_Succeeded'
p1994
I134
F4.03463109512606
F12.676052
tp1995
a(g11
I301
F0.0
F30.076066
tp1996
a(g11
I246
F0.0
F30.087194
tp1997
a(S'Solve_Succeeded'
p1998
I70
F3.9779854007805953
F5.979562
tp1999
a(S'Solve_Succeeded'
p2000
I120
F3.9599260471602165
F8.568394
tp2001
a(g11
I321
F0.0
F30.128082
tp2002
a(S'Solve_Succeeded'
p2003
I94
F3.985561689104943
F7.421734
tp2004
a(S'Solve_Succeeded'
p2005
I58
F4.082229392885155
F4.955776
tp2006
a(g11
I348
F0.0
F30.089828
tp2007
a(S'Solve_Succeeded'
p2008
I120
F4.089365337539647
F12.773807
tp2009
a(g11
I315
F0.0
F30.115481
tp2010
a(S'Solve_Succeeded'
p2011
I93
F4.152869462400228
F8.957294
tp2012
a(S'Solve_Succeeded'
p2013
I41
F4.053726093053641
F3.330644
tp2014
a(S'Solve_Succeeded'
p2015
I94
F3.961362400177938
F6.598752
tp2016
a(S'Solve_Succeeded'
p2017
I276
F4.133782206942199
F22.402594
tp2018
a(S'Solve_Succeeded'
p2019
I52
F4.012512366636565
F4.229486
tp2020
a(S'Solve_Succeeded'
p2021
I111
F4.022915959894521
F11.717833
tp2022
a(S'Solve_Succeeded'
p2023
I149
F3.936080224493182
F10.953458
tp2024
a(S'Solve_Succeeded'
p2025
I102
F4.039565480630315
F9.447537
tp2026
a(S'Solve_Succeeded'
p2027
I59
F4.01427357882238
F4.26957
tp2028
a(g11
I293
F0.0
F30.06405
tp2029
a(S'Solve_Succeeded'
p2030
I70
F3.967503763611625
F4.996557
tp2031
a(S'Solve_Succeeded'
p2032
I108
F3.998890250102127
F8.227578
tp2033
a(S'Solve_Succeeded'
p2034
I295
F3.9368175562692707
F19.675216
tp2035
a(S'Solve_Succeeded'
p2036
I88
F4.152986341887782
F6.300712
tp2037
a(S'Solve_Succeeded'
p2038
I89
F4.072055866441446
F8.164346
tp2039
a(g11
I247
F0.0
F30.191705
tp2040
a(S'Solve_Succeeded'
p2041
I61
F3.9182183113670654
F5.641275
tp2042
a(g11
I304
F0.0
F30.133478
tp2043
a(g11
I329
F0.0
F30.090861
tp2044
a(S'Solve_Succeeded'
p2045
I72
F3.9742177488871056
F6.122934
tp2046
a(S'Solve_Succeeded'
p2047
I50
F4.075153021784638
F3.90296
tp2048
a(S'Solve_Succeeded'
p2049
I78
F4.062714323575103
F6.085829
tp2050
a(g11
I279
F0.0
F30.137164
tp2051
a(S'Solve_Succeeded'
p2052
I114
F4.026188404575268
F9.978989
tp2053
a(S'Infeasible_Problem_Detected'
p2054
I197
F3.949932593383946
F28.303173
tp2055
a(S'Solve_Succeeded'
p2056
I79
F3.928965731805014
F7.671843
tp2057
a(S'Solve_Succeeded'
p2058
I85
F3.9430653020237734
F7.533874
tp2059
a(S'Solve_Succeeded'
p2060
I114
F3.9689574833921264
F8.617021
tp2061
a(S'Solve_Succeeded'
p2062
I85
F3.9490289695560667
F6.670998
tp2063
a(S'Solve_Succeeded'
p2064
I71
F4.028805232119786
F5.307596
tp2065
a(S'Solve_Succeeded'
p2066
I79
F3.9813413631630126
F7.128542
tp2067
a(S'Solve_Succeeded'
p2068
I110
F4.098362506594294
F8.129026
tp2069
a(S'Solve_Succeeded'
p2070
I86
F3.929266445744915
F6.228298
tp2071
a(S'Solve_Succeeded'
p2072
I97
F4.073437975701316
F7.500122
tp2073
a(S'Solve_Succeeded'
p2074
I61
F3.977914030464448
F5.510488
tp2075
a(g11
I166
F0.0
F30.120418
tp2076
a(S'Solve_Succeeded'
p2077
I53
F4.040730990296608
F4.198035
tp2078
a(S'Solve_Succeeded'
p2079
I114
F3.9713725425416695
F10.507228
tp2080
a(S'Solve_Succeeded'
p2081
I122
F3.910223206190456
F10.043155
tp2082
a(g11
I102
F0.0
F30.078286
tp2083
a(g11
I376
F0.0
F30.102473
tp2084
a(S'Solve_Succeeded'
p2085
I88
F3.9497212626236027
F9.090699
tp2086
a(S'Solve_Succeeded'
p2087
I119
F4.068276867369828
F8.911643
tp2088
a(S'Solve_Succeeded'
p2089
I152
F3.935355109890867
F13.912936
tp2090
a(g11
I270
F0.0
F30.107411
tp2091
a(S'Solve_Succeeded'
p2092
I117
F3.944145774913834
F12.209664
tp2093
a(S'Solve_Succeeded'
p2094
I121
F4.172595474052565
F10.905509
tp2095
a(S'Solve_Succeeded'
p2096
I136
F3.9437371541741792
F11.983598
tp2097
a(S'Solve_Succeeded'
p2098
I85
F4.071121491691096
F9.523259
tp2099
a(g11
I184
F0.0
F30.147908
tp2100
a(S'Solve_Succeeded'
p2101
I129
F3.9383975635476
F9.328504
tp2102
a(S'Solve_Succeeded'
p2103
I75
F3.9564943528074448
F6.196027
tp2104
a(S'Solve_Succeeded'
p2105
I64
F3.9853539435346192
F5.295928
tp2106
a(S'Solve_Succeeded'
p2107
I81
F4.059641866044357
F7.336069
tp2108
a(S'Solve_Succeeded'
p2109
I106
F3.9816393066843263
F7.860662
tp2110
a(S'Solve_Succeeded'
p2111
I60
F3.9900351432498695
F4.465378
tp2112
a(S'Solve_Succeeded'
p2113
I48
F4.139900936616955
F3.966557
tp2114
a(S'Solve_Succeeded'
p2115
I78
F3.930490316302533
F5.527307
tp2116
a(S'Solve_Succeeded'
p2117
I95
F3.9763334238756833
F8.936017
tp2118
a(S'Solve_Succeeded'
p2119
I131
F4.114005425572196
F9.738991
tp2120
a(S'Solve_Succeeded'
p2121
I235
F3.902644853684799
F20.493525
tp2122
a(S'Solve_Succeeded'
p2123
I65
F3.964891644171223
F4.86862
tp2124
a(S'Solve_Succeeded'
p2125
I103
F3.9075035980690545
F9.131671
tp2126
a(S'Solve_Succeeded'
p2127
I107
F3.928785050041687
F9.852398
tp2128
a(g11
I154
F0.0
F30.134702
tp2129
a(S'Solve_Succeeded'
p2130
I114
F4.098580785303222
F7.809892
tp2131
a(g11
I293
F0.0
F30.257258
tp2132
a(S'Solve_Succeeded'
p2133
I121
F3.949707684402816
F9.704371
tp2134
a(S'Solve_Succeeded'
p2135
I143
F4.127796510551952
F12.788949
tp2136
a(g11
I250
F0.0
F30.136729
tp2137
a(S'Solve_Succeeded'
p2138
I79
F4.048504199860023
F6.52944
tp2139
a(S'Solve_Succeeded'
p2140
I80
F4.05717253871615
F6.483951
tp2141
a(S'Solve_Succeeded'
p2142
I70
F3.973117245790084
F5.860073
tp2143
a(g11
I480
F0.0
F30.111823
tp2144
a(S'Solve_Succeeded'
p2145
I48
F4.107234113081467
F4.162433
tp2146
a(S'Solve_Succeeded'
p2147
I56
F4.001823887197507
F4.002726
tp2148
a(g11
I260
F0.0
F30.15807
tp2149
a(S'Solve_Succeeded'
p2150
I60
F4.095304084682692
F4.80683
tp2151
a(g11
I301
F0.0
F30.189706
tp2152
a(S'Solve_Succeeded'
p2153
I171
F3.981848314488264
F15.716721
tp2154
a(S'Solve_Succeeded'
p2155
I104
F3.9396797229572775
F7.617096
tp2156
a(S'Solve_Succeeded'
p2157
I94
F4.086511569297868
F8.83256
tp2158
a(g11
I291
F0.0
F30.077728
tp2159
a(S'Solve_Succeeded'
p2160
I108
F4.212491856569771
F8.990872
tp2161
a(S'Solve_Succeeded'
p2162
I98
F4.08382662420471
F8.045028
tp2163
a(g11
I329
F0.0
F30.104679
tp2164
a(S'Solve_Succeeded'
p2165
I100
F3.987543509779202
F8.080582
tp2166
a(S'Solve_Succeeded'
p2167
I173
F3.994451062259039
F13.077834
tp2168
a(S'Solve_Succeeded'
p2169
I132
F4.0025712675014775
F10.705067
tp2170
a(g11
I344
F0.0
F30.097734
tp2171
a(S'Solve_Succeeded'
p2172
I318
F3.8958614979814365
F28.824821
tp2173
a(g11
I390
F0.0
F30.097581
tp2174
a(g11
I434
F0.0
F30.126872
tp2175
a(S'Solve_Succeeded'
p2176
I122
F4.0211731745429455
F9.591935
tp2177
a(S'Solve_Succeeded'
p2178
I85
F3.962559416686086
F8.02192
tp2179
a(g11
I245
F0.0
F30.245434
tp2180
a(S'Solve_Succeeded'
p2181
I69
F3.9477024144433357
F5.08248
tp2182
a(S'Solve_Succeeded'
p2183
I181
F3.9578208022714656
F17.297498
tp2184
a(g11
I298
F0.0
F30.098568
tp2185
a(g11
I326
F0.0
F30.330947
tp2186
a(g11
I331
F0.0
F30.141339
tp2187
a(S'Solve_Succeeded'
p2188
I459
F4.020167516540133
F27.311284
tp2189
a(g11
I325
F0.0
F30.137004
tp2190
a(g11
I305
F0.0
F30.134346
tp2191
a(S'Solve_Succeeded'
p2192
I68
F4.0010126244428434
F5.971807
tp2193
a(S'Solve_Succeeded'
p2194
I82
F4.149054316362355
F7.482358
tp2195
a(S'Solve_Succeeded'
p2196
I142
F4.170678286370704
F11.881028
tp2197
a(S'Solve_Succeeded'
p2198
I77
F4.008888171382884
F6.137478
tp2199
a(S'Solve_Succeeded'
p2200
I112
F4.06961539233178
F8.681441
tp2201
a(S'Solve_Succeeded'
p2202
I99
F3.9640198291294864
F7.107778
tp2203
a(S'Solve_Succeeded'
p2204
I97
F4.018769105937791
F7.902813
tp2205
a(S'Solve_Succeeded'
p2206
I95
F4.087076641202059
F6.683022
tp2207
a(g11
I486
F0.0
F30.134135
tp2208
a(S'Solve_Succeeded'
p2209
I94
F4.049086318165042
F7.425065
tp2210
a(S'Solve_Succeeded'
p2211
I62
F4.1110348105799925
F5.413305
tp2212
a(S'Solve_Succeeded'
p2213
I61
F3.9492948979121025
F5.536671
tp2214
a(g11
I336
F0.0
F30.134125
tp2215
a(S'Solve_Succeeded'
p2216
I148
F3.9367798395781883
F10.814257
tp2217
a(g11
I344
F0.0
F30.09088
tp2218
a(S'Solve_Succeeded'
p2219
I142
F3.9504974696433663
F14.593629
tp2220
a(S'Solve_Succeeded'
p2221
I71
F4.139670261263937
F5.965948
tp2222
a(S'Solve_Succeeded'
p2223
I80
F3.92182653882208
F5.685926
tp2224
a(S'Solve_Succeeded'
p2225
I49
F3.9326222461851033
F3.829605
tp2226
a(S'Solve_Succeeded'
p2227
I54
F4.080219100339679
F4.503745
tp2228
a(g11
I297
F0.0
F30.120021
tp2229
a(S'Solve_Succeeded'
p2230
I57
F4.058463619232001
F5.393597
tp2231
a(g11
I471
F0.0
F30.122144
tp2232
a(g11
I513
F0.0
F30.104734
tp2233
a(g11
I284
F0.0
F30.099825
tp2234
a(g11
I300
F0.0
F30.178716
tp2235
a(g11
I322
F0.0
F30.128143
tp2236
a(S'Solve_Succeeded'
p2237
I114
F4.048494320775076
F10.624324
tp2238
a(S'Solve_Succeeded'
p2239
I49
F3.9627809222652473
F3.598147
tp2240
a(S'Solve_Succeeded'
p2241
I96
F4.064285394828174
F10.892289
tp2242
a(g11
I367
F0.0
F30.110343
tp2243
a(S'Solve_Succeeded'
p2244
I73
F4.069552525005371
F6.677235
tp2245
a(S'Solve_Succeeded'
p2246
I208
F3.9862517110058744
F19.420463
tp2247
a(S'Infeasible_Problem_Detected'
p2248
I169
F4.136059263804226
F27.746238
tp2249
a(S'Solve_Succeeded'
p2250
I249
F4.016490458459656
F25.153506
tp2251
a(S'Solve_Succeeded'
p2252
I180
F3.994686797445919
F13.677634
tp2253
a(S'Solve_Succeeded'
p2254
I54
F4.034105005846582
F4.774795
tp2255
a(S'Solve_Succeeded'
p2256
I95
F3.9275698186141055
F8.665936
tp2257
a(S'Solve_Succeeded'
p2258
I50
F4.015275131376155
F4.031365
tp2259
a(S'Solve_Succeeded'
p2260
I78
F4.133866834878871
F5.967255
tp2261
a(S'Solve_Succeeded'
p2262
I106
F3.9556167782572698
F8.765613
tp2263
a(S'Solve_Succeeded'
p2264
I211
F3.974234996603148
F14.119219
tp2265
a(S'Solve_Succeeded'
p2266
I79
F4.106718577952083
F8.503213
tp2267
a(S'Solve_Succeeded'
p2268
I74
F3.9598692211862367
F5.862885
tp2269
a(g11
I402
F0.0
F30.137955
tp2270
a(g11
I320
F0.0
F30.07945
tp2271
a(S'Solve_Succeeded'
p2272
I134
F3.9458537887078
F9.722316
tp2273
a(g11
I270
F0.0
F30.145201
tp2274
a(S'Solve_Succeeded'
p2275
I64
F4.05589321619691
F4.914912
tp2276
a(S'Solve_Succeeded'
p2277
I72
F3.9609629547440997
F8.953951
tp2278
a(S'Solve_Succeeded'
p2279
I97
F4.070407605568954
F12.883921
tp2280
a(S'Solve_Succeeded'
p2281
I95
F3.89639303094976
F9.248263
tp2282
a(S'Solve_Succeeded'
p2283
I68
F4.028964305403757
F5.425617
tp2284
a(S'Solve_Succeeded'
p2285
I103
F4.041054921138851
F7.977643
tp2286
a(g11
I292
F0.0
F30.127719
tp2287
a(g11
I319
F0.0
F30.102457
tp2288
a(S'Solve_Succeeded'
p2289
I53
F4.015060926293904
F6.312036
tp2290
a(S'Solve_Succeeded'
p2291
I167
F3.935660620801917
F13.556918
tp2292
a(g11
I449
F0.0
F30.101416
tp2293
a(S'Solve_Succeeded'
p2294
I89
F4.104373439171577
F8.38348
tp2295
a(S'Solve_Succeeded'
p2296
I64
F3.9414962492232357
F6.317719
tp2297
a(g11
I134
F0.0
F30.086991
tp2298
a(S'Solve_Succeeded'
p2299
I78
F4.048563902762734
F6.883335
tp2300
a(g11
I299
F0.0
F30.163638
tp2301
a(S'Solve_Succeeded'
p2302
I51
F3.930308582735233
F4.142404
tp2303
a(S'Solve_Succeeded'
p2304
I57
F3.9345153015622993
F5.586583
tp2305
a(S'Solve_Succeeded'
p2306
I122
F4.0590053129930075
F9.754175
tp2307
a(S'Solve_Succeeded'
p2308
I176
F4.029585264263389
F15.626201
tp2309
a(S'Solve_Succeeded'
p2310
I44
F3.944917595456805
F3.777563
tp2311
a(S'Solve_Succeeded'
p2312
I190
F4.039406278883126
F20.133801
tp2313
a(g11
I487
F0.0
F30.089372
tp2314
a(S'Solve_Succeeded'
p2315
I112
F4.120391329982799
F10.533323
tp2316
a(S'Solve_Succeeded'
p2317
I79
F4.0106855961106245
F6.064937
tp2318
a(S'Solve_Succeeded'
p2319
I82
F3.945451521295287
F7.184199
tp2320
a(S'Solve_Succeeded'
p2321
I192
F4.17467777966877
F18.071251
tp2322
a(S'Solve_Succeeded'
p2323
I172
F4.185715258158594
F14.993261
tp2324
a(g11
I348
F0.0
F30.079213
tp2325
a(S'Solve_Succeeded'
p2326
I74
F4.041264939660695
F5.117998
tp2327
a(g11
I281
F0.0
F30.116995
tp2328
a(S'Solve_Succeeded'
p2329
I92
F3.9354740868768747
F7.099238
tp2330
a(S'Solve_Succeeded'
p2331
I184
F3.9368710497967383
F17.186104
tp2332
a(g11
I307
F0.0
F30.164909
tp2333
a(S'Solve_Succeeded'
p2334
I49
F4.086622170054445
F3.806191
tp2335
a(g11
I314
F0.0
F30.090802
tp2336
a(S'Solve_Succeeded'
p2337
I104
F4.050077081585258
F10.255804
tp2338
a(g11
I328
F0.0
F30.17338
tp2339
a(S'Solve_Succeeded'
p2340
I68
F4.02294466586154
F5.228088
tp2341
a(S'Solve_Succeeded'
p2342
I267
F4.169722582369544
F25.089164
tp2343
a(S'Solve_Succeeded'
p2344
I71
F4.114648069481015
F5.796141
tp2345
a(g11
I327
F0.0
F30.19858
tp2346
a(g11
I498
F0.0
F30.107714
tp2347
a(S'Solve_Succeeded'
p2348
I111
F4.034961630101678
F8.11574
tp2349
a(S'Solve_Succeeded'
p2350
I161
F4.173486950244337
F12.943056
tp2351
a(g11
I213
F0.0
F30.176423
tp2352
a(g11
I266
F0.0
F30.153871
tp2353
a(S'Solve_Succeeded'
p2354
I135
F3.934903146474445
F10.06286
tp2355
a(S'Solve_Succeeded'
p2356
I85
F3.9723184799929507
F8.554528
tp2357
a(S'Solve_Succeeded'
p2358
I63
F3.912806102888688
F5.188796
tp2359
a(S'Solve_Succeeded'
p2360
I123
F3.9717805960776804
F9.652002
tp2361
a(S'Solve_Succeeded'
p2362
I46
F3.934736980558547
F3.955554
tp2363
a(S'Solve_Succeeded'
p2364
I102
F4.002595683121296
F9.287261
tp2365
a(S'Solve_Succeeded'
p2366
I107
F4.025829395572172
F8.836816
tp2367
a(S'Solve_Succeeded'
p2368
I272
F4.034791702226669
F23.142448
tp2369
a(g11
I352
F0.0
F30.10535
tp2370
a(g11
I276
F0.0
F30.166616
tp2371
a(g11
I490
F0.0
F30.09218
tp2372
a(S'Solve_Succeeded'
p2373
I110
F3.983849517430123
F9.919928
tp2374
a(S'Solve_Succeeded'
p2375
I74
F3.971344980942142
F6.438452
tp2376
a(S'Solve_Succeeded'
p2377
I62
F3.917063359224196
F4.769754
tp2378
a(g11
I340
F0.0
F30.141941
tp2379
a(g11
I227
F0.0
F30.082123
tp2380
a(S'Solve_Succeeded'
p2381
I94
F4.004938899177434
F7.52617
tp2382
a(g11
I228
F0.0
F30.147323
tp2383
a(S'Solve_Succeeded'
p2384
I105
F3.944944475604191
F11.040987
tp2385
a(S'Solve_Succeeded'
p2386
I57
F4.107130853746916
F4.699414
tp2387
a(S'Solve_Succeeded'
p2388
I66
F4.104529678305853
F6.011172
tp2389
a(S'Solve_Succeeded'
p2390
I123
F3.9724793018597726
F11.127571
tp2391
a(S'Solve_Succeeded'
p2392
I146
F3.9277447459886496
F12.485284
tp2393
a(S'Solve_Succeeded'
p2394
I70
F4.035651085618751
F6.479996
tp2395
a(g11
I242
F0.0
F30.182054
tp2396
a(S'Solve_Succeeded'
p2397
I48
F4.086115041520692
F4.269348
tp2398
a(S'Solve_Succeeded'
p2399
I101
F4.017047724188416
F7.957532
tp2400
a(S'Solve_Succeeded'
p2401
I76
F4.079125302928979
F6.535341
tp2402
a(g11
I221
F0.0
F30.165004
tp2403
a(S'Solve_Succeeded'
p2404
I171
F4.013557813908286
F15.965172
tp2405
a(g11
I260
F0.0
F30.088547
tp2406
a(S'Solve_Succeeded'
p2407
I142
F3.9369002385618326
F10.007294
tp2408
a(g11
I297
F0.0
F30.118774
tp2409
a(S'Solve_Succeeded'
p2410
I49
F4.039804387229895
F3.839373
tp2411
a(g11
I476
F0.0
F30.115038
tp2412
a(S'Solve_Succeeded'
p2413
I93
F3.941674998561814
F7.083834
tp2414
a(S'Solve_Succeeded'
p2415
I83
F3.9932038955989166
F7.018294
tp2416
a(g11
I331
F0.0
F30.108484
tp2417
a(g11
I239
F0.0
F30.077107
tp2418
a(g11
I481
F0.0
F30.124544
tp2419
a(S'Solve_Succeeded'
p2420
I100
F4.080325061094816
F7.686659
tp2421
a(S'Solve_Succeeded'
p2422
I276
F4.170517303567655
F27.753922
tp2423
a(S'Solve_Succeeded'
p2424
I213
F4.16654858560528
F22.088331
tp2425
a(S'Solve_Succeeded'
p2426
I97
F3.8911535993683786
F8.121705
tp2427
a(g11
I369
F0.0
F30.077839
tp2428
a(S'Solve_Succeeded'
p2429
I200
F4.05915528424401
F18.355274
tp2430
a(S'Solve_Succeeded'
p2431
I98
F4.035960561430984
F7.265199
tp2432
a(S'Solve_Succeeded'
p2433
I76
F4.015989434768534
F7.14573
tp2434
a(S'Solve_Succeeded'
p2435
I133
F4.139911364926146
F11.71826
tp2436
a(g11
I554
F0.0
F30.114467
tp2437
a(g11
I178
F0.0
F30.131433
tp2438
a(S'Solve_Succeeded'
p2439
I243
F4.0225165081962695
F15.824504
tp2440
a(S'Solve_Succeeded'
p2441
I236
F4.056612882012103
F20.802816
tp2442
a(S'Solve_Succeeded'
p2443
I77
F3.935571854386492
F7.508536
tp2444
a(S'Solve_Succeeded'
p2445
I51
F4.0436251832827965
F3.603182
tp2446
a(g11
I244
F0.0
F30.129668
tp2447
a(S'Solve_Succeeded'
p2448
I106
F3.923471159685773
F7.497138
tp2449
a(S'Solve_Succeeded'
p2450
I119
F3.947557730170784
F10.11992
tp2451
a(S'Solve_Succeeded'
p2452
I102
F3.9166085306718754
F9.215357
tp2453
a(S'Solve_Succeeded'
p2454
I159
F3.92039395850987
F14.148039
tp2455
a(g11
I220
F0.0
F30.132379
tp2456
a(S'Solve_Succeeded'
p2457
I181
F4.157462595576734
F18.300589
tp2458
a(g11
I232
F0.0
F30.096124
tp2459
a(S'Solve_Succeeded'
p2460
I103
F4.039975923842126
F6.812024
tp2461
a(g11
I325
F0.0
F30.098611
tp2462
a(S'Solve_Succeeded'
p2463
I74
F3.92061698685919
F6.177081
tp2464
a(S'Solve_Succeeded'
p2465
I113
F4.049259832771179
F9.35076
tp2466
a(S'Solve_Succeeded'
p2467
I76
F4.051834316090946
F5.429362
tp2468
a(S'Solve_Succeeded'
p2469
I144
F4.093407202238245
F14.680583
tp2470
a(S'Solve_Succeeded'
p2471
I87
F4.059718785272784
F8.320833
tp2472
a(S'Solve_Succeeded'
p2473
I132
F3.9835842500247063
F10.259089
tp2474
a(S'Solve_Succeeded'
p2475
I126
F4.001141216238451
F10.212153
tp2476
a(g11
I463
F0.0
F30.122005
tp2477
a(g11
I294
F0.0
F30.103615
tp2478
a(S'Solve_Succeeded'
p2479
I123
F4.188383945382666
F12.409614
tp2480
a(S'Solve_Succeeded'
p2481
I50
F3.9832531319685858
F3.895359
tp2482
a(S'Solve_Succeeded'
p2483
I342
F4.1061987542296245
F23.171063
tp2484
a(S'Solve_Succeeded'
p2485
I98
F4.117994728159964
F7.660399
tp2486
a(g11
I326
F0.0
F30.172493
tp2487
a(S'Solve_Succeeded'
p2488
I90
F4.056204725660782
F7.592233
tp2489
a(g11
I469
F0.0
F30.080103
tp2490
a(S'Solve_Succeeded'
p2491
I141
F4.135507161723976
F10.501781
tp2492
a(S'Solve_Succeeded'
p2493
I80
F4.020732647710473
F6.028846
tp2494
a(S'Solve_Succeeded'
p2495
I60
F3.965410635955497
F5.89911
tp2496
a(S'Solve_Succeeded'
p2497
I155
F4.0438901556809
F12.765127
tp2498
a(S'Solve_Succeeded'
p2499
I108
F3.943673186154927
F8.451166
tp2500
a(S'Solve_Succeeded'
p2501
I114
F4.0623431904631255
F10.615933
tp2502
a(g11
I279
F0.0
F30.205378
tp2503
a(S'Solve_Succeeded'
p2504
I306
F4.010783413850436
F27.304992
tp2505
a(g11
I474
F0.0
F30.121579
tp2506
a(S'Solve_Succeeded'
p2507
I94
F3.938058822738603
F8.571326
tp2508
a(S'Solve_Succeeded'
p2509
I106
F4.1189798333766925
F9.755446
tp2510
a(S'Solve_Succeeded'
p2511
I105
F4.076042292066749
F7.822894
tp2512
a(S'Solve_Succeeded'
p2513
I122
F4.04587628092152
F10.051975
tp2514
a(g11
I289
F0.0
F30.135641
tp2515
a(g11
I268
F0.0
F30.080671
tp2516
a(S'Solve_Succeeded'
p2517
I134
F3.9575919442307996
F9.438753
tp2518
a(S'Solve_Succeeded'
p2519
I115
F4.036706313491558
F8.823424
tp2520
a(g11
I254
F0.0
F30.147964
tp2521
a(g11
I408
F0.0
F30.098129
tp2522
a(S'Solve_Succeeded'
p2523
I68
F3.9447613246021236
F5.913889
tp2524
a(S'Solve_Succeeded'
p2525
I145
F3.914935112410992
F15.444682
tp2526
a(S'Solve_Succeeded'
p2527
I225
F4.033685498957338
F19.729106
tp2528
a(S'Solve_Succeeded'
p2529
I168
F3.9872712139980075
F12.801627
tp2530
a(S'Solve_Succeeded'
p2531
I45
F4.066689392141566
F3.328011
tp2532
a(S'Infeasible_Problem_Detected'
p2533
I209
F4.065768945622502
F26.587105
tp2534
a(g11
I480
F0.0
F30.116523
tp2535
a(S'Solve_Succeeded'
p2536
I138
F3.984407599314131
F10.822159
tp2537
a(S'Solve_Succeeded'
p2538
I109
F4.014653449942251
F10.613633
tp2539
a(S'Solve_Succeeded'
p2540
I90
F4.191652866939616
F10.595943
tp2541
a(g11
I277
F0.0
F30.122443
tp2542
a(S'Solve_Succeeded'
p2543
I252
F3.911080441693762
F24.23549
tp2544
a(g11
I509
F0.0
F30.1088
tp2545
a(S'Solve_Succeeded'
p2546
I44
F4.016242620584042
F3.43196
tp2547
a(S'Solve_Succeeded'
p2548
I68
F4.121998828098859
F6.531747
tp2549
a(g11
I276
F0.0
F30.129983
tp2550
a(S'Solve_Succeeded'
p2551
I91
F3.9447704008034683
F7.367545
tp2552
a(g11
I347
F0.0
F30.064539
tp2553
a(S'Solve_Succeeded'
p2554
I69
F3.985637236189529
F9.121471
tp2555
a(S'Solve_Succeeded'
p2556
I90
F4.102516425533182
F7.95718
tp2557
a(S'Solve_Succeeded'
p2558
I60
F3.926068572965798
F4.614508
tp2559
a(S'Solve_Succeeded'
p2560
I172
F4.133024106864016
F13.617372
tp2561
a(S'Solve_Succeeded'
p2562
I137
F4.072148351282531
F13.239085
tp2563
a(g11
I316
F0.0
F30.0841
tp2564
a(S'Solve_Succeeded'
p2565
I167
F3.8932559498236476
F14.128312
tp2566
a(g11
I339
F0.0
F30.349313
tp2567
a(S'Solve_Succeeded'
p2568
I55
F4.071213864733205
F4.65176
tp2569
a(S'Solve_Succeeded'
p2570
I193
F4.073705351044452
F20.009107
tp2571
a(S'Solve_Succeeded'
p2572
I75
F4.044740710581288
F6.49176
tp2573
a(g11
I171
F0.0
F30.241068
tp2574
a(S'Solve_Succeeded'
p2575
I167
F4.096446723974793
F15.62109
tp2576
a(g11
I345
F0.0
F30.109279
tp2577
a(S'Solve_Succeeded'
p2578
I61
F3.917379947803809
F5.139634
tp2579
a(g11
I232
F0.0
F30.129304
tp2580
a(S'Solve_Succeeded'
p2581
I82
F3.9285632040051555
F7.213863
tp2582
a(S'Solve_Succeeded'
p2583
I51
F4.03883632599917
F3.861264
tp2584
a(S'Infeasible_Problem_Detected'
p2585
I82
F3.942472566879053
F25.601712
tp2586
a(S'Solve_Succeeded'
p2587
I63
F3.9397429197098957
F5.00646
tp2588
a(S'Solve_Succeeded'
p2589
I167
F3.927205478422829
F16.078397
tp2590
a(S'Solve_Succeeded'
p2591
I59
F4.036239548005684
F4.580886
tp2592
a(S'Solve_Succeeded'
p2593
I50
F4.029436904427516
F3.958567
tp2594
a(S'Solve_Succeeded'
p2595
I138
F3.9554544990775606
F14.221088
tp2596
a(S'Solve_Succeeded'
p2597
I123
F4.239294414790734
F12.458054
tp2598
a(S'Solve_Succeeded'
p2599
I173
F3.9739533155231883
F13.224832
tp2600
a(g11
I274
F0.0
F30.092209
tp2601
a(S'Solve_Succeeded'
p2602
I66
F3.9889663849384442
F5.469546
tp2603
a(S'Solve_Succeeded'
p2604
I96
F3.9859186133618114
F7.68376
tp2605
a(S'Solve_Succeeded'
p2606
I81
F4.054291927050823
F7.182038
tp2607
a(S'Solve_Succeeded'
p2608
I76
F4.009801442063661
F6.491753
tp2609
a(S'Solve_Succeeded'
p2610
I56
F4.080487313863502
F3.998622
tp2611
a(S'Solve_Succeeded'
p2612
I96
F4.130443098953159
F8.970387
tp2613
a(S'Solve_Succeeded'
p2614
I65
F3.935000703774099
F5.359316
tp2615
a(g11
I154
F0.0
F30.115168
tp2616
a(S'Solve_Succeeded'
p2617
I65
F3.9945036881180807
F5.045112
tp2618
a(S'Solve_Succeeded'
p2619
I76
F3.9949860721719515
F6.729479
tp2620
a(S'Solve_Succeeded'
p2621
I98
F4.001103837402532
F8.291515
tp2622
a(S'Solve_Succeeded'
p2623
I113
F4.11226020296698
F10.044604
tp2624
a(S'Solve_Succeeded'
p2625
I59
F3.9538945457081676
F5.465988
tp2626
a(g11
I281
F0.0
F30.105112
tp2627
a(S'Solve_Succeeded'
p2628
I115
F4.013769034154952
F13.718727
tp2629
a(g11
I274
F0.0
F30.103823
tp2630
a(g11
I189
F0.0
F30.135155
tp2631
a(S'Solve_Succeeded'
p2632
I113
F3.961586593744276
F10.582752
tp2633
a(g11
I465
F0.0
F30.110175
tp2634
a(S'Solve_Succeeded'
p2635
I90
F3.9345767117327366
F6.672003
tp2636
a(g11
I208
F0.0
F30.08802
tp2637
a(S'Solve_Succeeded'
p2638
I126
F4.176796655642368
F11.135895
tp2639
a(S'Solve_Succeeded'
p2640
I85
F4.094223141391553
F9.251281
tp2641
a(S'Solve_Succeeded'
p2642
I62
F4.00141261892448
F4.579193
tp2643
a(S'Solve_Succeeded'
p2644
I99
F3.9379229594025342
F8.697216
tp2645
a(g11
I306
F0.0
F30.079423
tp2646
a(S'Solve_Succeeded'
p2647
I106
F4.084168678686213
F9.592489
tp2648
a(S'Solve_Succeeded'
p2649
I72
F3.9653291986154713
F6.05065
tp2650
a(S'Solve_Succeeded'
p2651
I87
F3.998957391856331
F6.177574
tp2652
a(S'Solve_Succeeded'
p2653
I108
F3.9643333409121664
F9.118621
tp2654
a(S'Solve_Succeeded'
p2655
I128
F3.957654896512232
F9.077465
tp2656
a(S'Solve_Succeeded'
p2657
I141
F4.0249751204129876
F11.55746
tp2658
a(g11
I330
F0.0
F30.250917
tp2659
a(g11
I336
F0.0
F30.10561
tp2660
a(S'Solve_Succeeded'
p2661
I81
F4.073717478288014
F7.926733
tp2662
a(S'Solve_Succeeded'
p2663
I117
F3.9075897301377243
F11.880928
tp2664
a(S'Solve_Succeeded'
p2665
I91
F4.131918424508115
F6.455976
tp2666
a(S'Solve_Succeeded'
p2667
I92
F4.030494315951162
F8.284579
tp2668
a(g11
I292
F0.0
F30.092937
tp2669
a(S'Solve_Succeeded'
p2670
I125
F4.117530380346646
F10.631987
tp2671
a(S'Solve_Succeeded'
p2672
I64
F3.968437101756608
F6.320945
tp2673
a(S'Solve_Succeeded'
p2674
I120
F4.047986953823744
F11.737171
tp2675
a(S'Solve_Succeeded'
p2676
I94
F3.9465705309163357
F7.430055
tp2677
a(S'Solve_Succeeded'
p2678
I122
F3.9428662053543357
F9.06806
tp2679
a(g11
I457
F0.0
F30.13412
tp2680
a(g11
I245
F0.0
F30.077479
tp2681
a(S'Solve_Succeeded'
p2682
I105
F4.023433801047629
F7.859753
tp2683
a(S'Solve_Succeeded'
p2684
I86
F4.087479278522515
F6.281997
tp2685
a(S'Solve_Succeeded'
p2686
I74
F3.9385791067539504
F5.90487
tp2687
a(S'Solve_Succeeded'
p2688
I101
F3.946875542867416
F7.348306
tp2689
a(S'Solve_Succeeded'
p2690
I56
F4.0544955042544215
F4.983403
tp2691
a(g11
I330
F0.0
F30.274441
tp2692
a(S'Solve_Succeeded'
p2693
I82
F3.9684389684814954
F6.216725
tp2694
a(S'Solve_Succeeded'
p2695
I121
F3.9250634271506177
F10.227047
tp2696
a(S'Solve_Succeeded'
p2697
I158
F4.0672777494007235
F15.38176
tp2698
a(S'Solve_Succeeded'
p2699
I115
F4.059582510850088
F10.411886
tp2700
a(S'Solve_Succeeded'
p2701
I58
F4.084521762176051
F4.252841
tp2702
a(g11
I302
F0.0
F30.116925
tp2703
a(g11
I274
F0.0
F30.077934
tp2704
a(S'Solve_Succeeded'
p2705
I107
F3.893647682390907
F9.497283
tp2706
a(g11
I185
F0.0
F30.117427
tp2707
a(S'Solve_Succeeded'
p2708
I66
F4.007923210591437
F5.029795
tp2709
a(S'Solve_Succeeded'
p2710
I113
F3.976859009007896
F8.800766
tp2711
a(S'Solve_Succeeded'
p2712
I79
F4.087993765455509
F6.13428
tp2713
a(S'Solve_Succeeded'
p2714
I139
F4.070964757851494
F11.534684
tp2715
a(g11
I314
F0.0
F30.112599
tp2716
a(S'Solve_Succeeded'
p2717
I104
F3.93686262412005
F9.269819
tp2718
a(S'Solve_Succeeded'
p2719
I106
F4.0844479393390625
F8.753219
tp2720
a(g11
I243
F0.0
F30.071686
tp2721
a(S'Solve_Succeeded'
p2722
I54
F3.9410712883444483
F4.855277
tp2723
a(S'Solve_Succeeded'
p2724
I117
F4.070232899390245
F9.98323
tp2725
a(g11
I273
F0.0
F30.080246
tp2726
a(g11
I331
F0.0
F30.12133
tp2727
a(S'Solve_Succeeded'
p2728
I90
F4.1077288015384195
F6.752151
tp2729
a(S'Solve_Succeeded'
p2730
I64
F4.076431005631162
F5.845127
tp2731
a(S'Solve_Succeeded'
p2732
I64
F3.923630818800886
F5.063589
tp2733
a(S'Solve_Succeeded'
p2734
I169
F3.9932602579300776
F13.272787
tp2735
a(S'Solve_Succeeded'
p2736
I171
F4.030353600466134
F11.94674
tp2737
a(S'Solve_Succeeded'
p2738
I66
F3.925776979927676
F4.738827
tp2739
a(S'Solve_Succeeded'
p2740
I130
F4.060605878810304
F10.92559
tp2741
a(S'Solve_Succeeded'
p2742
I162
F4.139875114348355
F12.322556
tp2743
a(g11
I332
F0.0
F30.128304
tp2744
a(g11
I300
F0.0
F30.12722
tp2745
a(S'Solve_Succeeded'
p2746
I72
F3.9618527457924078
F5.505306
tp2747
a(S'Solve_Succeeded'
p2748
I91
F4.064387916581661
F7.721319
tp2749
a(S'Infeasible_Problem_Detected'
p2750
I252
F4.246991055500492
F29.804568
tp2751
a(S'Solve_Succeeded'
p2752
I246
F3.917917346062262
F25.198243
tp2753
a(S'Solve_Succeeded'
p2754
I83
F4.032049666988479
F5.90912
tp2755
a(S'Solve_Succeeded'
p2756
I88
F4.061554672559891
F7.187689
tp2757
a(S'Solve_Succeeded'
p2758
I189
F4.017718244609882
F13.645352
tp2759
a(S'Solve_Succeeded'
p2760
I286
F3.9948195325702742
F25.107366
tp2761
a(S'Solve_Succeeded'
p2762
I85
F3.960876777329597
F9.532506
tp2763
a(g11
I326
F0.0
F30.144363
tp2764
a(S'Solve_Succeeded'
p2765
I49
F4.03598080064683
F3.543284
tp2766
a(S'Solve_Succeeded'
p2767
I52
F4.00701354844885
F3.996825
tp2768
a(S'Solve_Succeeded'
p2769
I90
F4.11016159964921
F7.500103
tp2770
a(S'Solve_Succeeded'
p2771
I131
F4.0647353279599745
F11.459769
tp2772
a(S'Solve_Succeeded'
p2773
I53
F4.081753100051845
F4.236196
tp2774
a(S'Solve_Succeeded'
p2775
I83
F3.9684145890155955
F6.679727
tp2776
a(S'Solve_Succeeded'
p2777
I117
F3.993239095246618
F8.08869
tp2778
a(S'Solve_Succeeded'
p2779
I64
F4.092375820940505
F5.900808
tp2780
a(S'Solve_Succeeded'
p2781
I100
F4.037874894308821
F7.258992
tp2782
a(S'Solve_Succeeded'
p2783
I51
F4.014301553194755
F3.831384
tp2784
a(S'Solve_Succeeded'
p2785
I95
F3.9360807434104688
F7.835151
tp2786
a(S'Solve_Succeeded'
p2787
I81
F3.980080925740234
F5.713786
tp2788
a(S'Solve_Succeeded'
p2789
I79
F3.93707641975921
F6.95945
tp2790
a(g11
I319
F0.0
F30.097361
tp2791
a(S'Solve_Succeeded'
p2792
I102
F3.9963753532943564
F11.142815
tp2793
a(g11
I497
F0.0
F30.117052
tp2794
a(S'Solve_Succeeded'
p2795
I148
F4.044124651605636
F10.71439
tp2796
a(S'Solve_Succeeded'
p2797
I122
F4.013631652403936
F8.979898
tp2798
a(S'Solve_Succeeded'
p2799
I87
F4.051740008580752
F8.354816
tp2800
a(S'Solve_Succeeded'
p2801
I120
F4.086548886270063
F9.124491
tp2802
a(S'Solve_Succeeded'
p2803
I80
F4.205044794844239
F9.316494
tp2804
a(S'Solve_Succeeded'
p2805
I143
F4.167912299209077
F14.397191
tp2806
a(S'Solve_Succeeded'
p2807
I99
F4.054607416281437
F9.280066
tp2808
a(S'Solve_Succeeded'
p2809
I127
F4.004062848856736
F12.350494
tp2810
a(S'Solve_Succeeded'
p2811
I152
F4.042922459707961
F12.230752
tp2812
a(S'Solve_Succeeded'
p2813
I85
F3.939019656933126
F6.625265
tp2814
a(S'Solve_Succeeded'
p2815
I121
F3.9481575887342735
F13.584711
tp2816
a(S'Solve_Succeeded'
p2817
I77
F3.9415375140742994
F5.57876
tp2818
a(S'Solve_Succeeded'
p2819
I87
F4.024161626992235
F6.046583
tp2820
a(S'Solve_Succeeded'
p2821
I110
F3.9455154387656703
F9.12483
tp2822
a(g11
I354
F0.0
F30.120077
tp2823
a(S'Solve_Succeeded'
p2824
I102
F4.026211683825404
F8.925303
tp2825
a(g11
I278
F0.0
F30.133123
tp2826
a(g11
I239
F0.0
F30.078984
tp2827
a(S'Solve_Succeeded'
p2828
I136
F4.056446571158566
F12.431734
tp2829
a(g11
I229
F0.0
F30.168167
tp2830
a(S'Solve_Succeeded'
p2831
I107
F4.198935693898383
F9.643709
tp2832
a(S'Solve_Succeeded'
p2833
I130
F3.962407299226356
F12.642784
tp2834
a(S'Solve_Succeeded'
p2835
I366
F3.974599594783042
F24.30215
tp2836
a(S'Solve_Succeeded'
p2837
I148
F3.9588279642678352
F13.104326
tp2838
a(S'Solve_Succeeded'
p2839
I40
F3.9195781715404148
F2.975799
tp2840
a(g11
I515
F0.0
F30.139377
tp2841
a(S'Solve_Succeeded'
p2842
I98
F4.042426492725054
F6.911792
tp2843
a(g11
I308
F0.0
F30.131301
tp2844
a(g11
I458
F0.0
F30.083748
tp2845
a(S'Solve_Succeeded'
p2846
I77
F3.9865519936892193
F5.827445
tp2847
a(g11
I337
F0.0
F30.131329
tp2848
a(S'Solve_Succeeded'
p2849
I111
F4.290101873496662
F11.110386
tp2850
a(S'Solve_Succeeded'
p2851
I76
F3.9598534545918316
F7.551711
tp2852
a(S'Solve_Succeeded'
p2853
I78
F4.084397677846648
F7.008663
tp2854
a(S'Solve_Succeeded'
p2855
I72
F4.091344840856678
F5.794322
tp2856
a(S'Solve_Succeeded'
p2857
I51
F3.913839362794612
F4.345114
tp2858
a(S'Solve_Succeeded'
p2859
I145
F4.1756404341648645
F12.682139
tp2860
a(S'Solve_Succeeded'
p2861
I120
F4.117727527792738
F10.878579
tp2862
a(S'Solve_Succeeded'
p2863
I216
F3.9929438081203505
F20.13055
tp2864
a(S'Solve_Succeeded'
p2865
I115
F3.9894960795413685
F9.989805
tp2866
a(S'Solve_Succeeded'
p2867
I137
F3.9655019049555
F11.741128
tp2868
a(S'Solve_Succeeded'
p2869
I54
F4.068071324372477
F4.537202
tp2870
a(S'Solve_Succeeded'
p2871
I161
F4.096012428439839
F14.0941
tp2872
a(S'Solve_Succeeded'
p2873
I73
F3.9715385811718082
F7.830745
tp2874
a(S'Solve_Succeeded'
p2875
I101
F4.0339416555719225
F8.214025
tp2876
a(S'Solve_Succeeded'
p2877
I58
F4.004249241468918
F5.732582
tp2878
a(S'Solve_Succeeded'
p2879
I184
F3.9890086070759416
F13.357291
tp2880
a(g11
I304
F0.0
F30.264123
tp2881
a(g11
I295
F0.0
F30.117187
tp2882
a(S'Solve_Succeeded'
p2883
I96
F3.9286849472113885
F7.068277
tp2884
a(S'Solve_Succeeded'
p2885
I56
F3.9186852769776155
F4.366333
tp2886
a(g11
I217
F0.0
F30.207116
tp2887
a(S'Solve_Succeeded'
p2888
I64
F4.000786649070393
F5.496312
tp2889
a(S'Solve_Succeeded'
p2890
I128
F3.9839750930883
F11.149025
tp2891
a(S'Solve_Succeeded'
p2892
I97
F4.025514770550409
F7.080658
tp2893
a(S'Solve_Succeeded'
p2894
I108
F3.9949860973472537
F7.9281
tp2895
a(g11
I286
F0.0
F30.070339
tp2896
a(S'Solve_Succeeded'
p2897
I94
F4.016051939620709
F6.362259
tp2898
a(S'Solve_Succeeded'
p2899
I76
F4.069108909244208
F6.367691
tp2900
a(g11
I235
F0.0
F30.09951
tp2901
a(S'Solve_Succeeded'
p2902
I121
F3.9072950212251145
F10.770181
tp2903
a(g11
I269
F0.0
F30.210384
tp2904
a(S'Solve_Succeeded'
p2905
I84
F3.9498604405859967
F6.537966
tp2906
a(S'Solve_Succeeded'
p2907
I74
F4.121578365898941
F7.32434
tp2908
a(S'Solve_Succeeded'
p2909
I62
F3.9197282527690875
F5.771295
tp2910
a(g11
I328
F0.0
F30.125385
tp2911
a(S'Solve_Succeeded'
p2912
I159
F4.232086031486297
F15.921303
tp2913
a(S'Solve_Succeeded'
p2914
I113
F4.139476041083568
F8.904413
tp2915
a(S'Solve_Succeeded'
p2916
I73
F4.05476135835351
F6.864022
tp2917
a(S'Solve_Succeeded'
p2918
I94
F3.9453929720021175
F8.83022
tp2919
a(S'Solve_Succeeded'
p2920
I246
F4.191095767963605
F26.510167
tp2921
a(S'Solve_Succeeded'
p2922
I125
F4.0904759207399515
F14.104319
tp2923
a(S'Solve_Succeeded'
p2924
I70
F3.927052568449064
F5.49059
tp2925
a(S'Solve_Succeeded'
p2926
I144
F4.039808644640976
F11.334206
tp2927
a(g11
I269
F0.0
F30.05644
tp2928
a(S'Solve_Succeeded'
p2929
I175
F4.023715815831427
F14.75259
tp2930
a(S'Solve_Succeeded'
p2931
I83
F4.172152689916223
F6.374564
tp2932
a(S'Solve_Succeeded'
p2933
I116
F4.184686656750572
F13.160636
tp2934
a(g11
I462
F0.0
F30.130309
tp2935
a(S'Solve_Succeeded'
p2936
I104
F3.9797885501636485
F8.325756
tp2937
a(S'Solve_Succeeded'
p2938
I83
F4.05132988547065
F5.732247
tp2939
a(g11
I475
F0.0
F30.097875
tp2940
a(S'Solve_Succeeded'
p2941
I158
F4.008606593098999
F11.137776
tp2942
a(S'Solve_Succeeded'
p2943
I101
F3.991209051885918
F8.912422
tp2944
a(S'Solve_Succeeded'
p2945
I76
F3.916722045054546
F6.129627
tp2946
a(S'Solve_Succeeded'
p2947
I71
F3.9622639898390313
F7.434146
tp2948
a(S'Solve_Succeeded'
p2949
I153
F3.9309423298894517
F12.128707
tp2950
a(S'Solve_Succeeded'
p2951
I104
F4.165547702488891
F7.77068
tp2952
a(S'Solve_Succeeded'
p2953
I61
F3.9776947277100256
F6.534039
tp2954
a(S'Solve_Succeeded'
p2955
I59
F3.9622048754767194
F4.927292
tp2956
a(S'Solve_Succeeded'
p2957
I160
F4.004350234656246
F14.456307
tp2958
a(S'Solve_Succeeded'
p2959
I80
F4.0578581273437555
F7.014357
tp2960
a(g11
I314
F0.0
F30.142596
tp2961
a(S'Solve_Succeeded'
p2962
I80
F4.031259055964045
F6.37473
tp2963
a(S'Solve_Succeeded'
p2964
I135
F4.162212063734851
F12.653023
tp2965
a(g11
I219
F0.0
F30.092353
tp2966
a(S'Solve_Succeeded'
p2967
I146
F4.102264613110373
F15.99778
tp2968
a(S'Solve_Succeeded'
p2969
I92
F4.144502469324078
F8.607813
tp2970
a(S'Solve_Succeeded'
p2971
I54
F3.9346736862127445
F4.261759
tp2972
a(S'Solve_Succeeded'
p2973
I145
F3.9095195809712684
F12.880124
tp2974
a(S'Solve_Succeeded'
p2975
I253
F4.149523029923012
F21.858643
tp2976
a(S'Solve_Succeeded'
p2977
I238
F4.039969624275747
F19.160097
tp2978
a(g11
I511
F0.0
F30.118847
tp2979
a(S'Solve_Succeeded'
p2980
I117
F3.926183196038791
F8.185975
tp2981
a(g11
I267
F0.0
F30.101527
tp2982
a(g11
I246
F0.0
F30.084635
tp2983
a(g11
I355
F0.0
F30.088558
tp2984
a(S'Solve_Succeeded'
p2985
I95
F4.044042278579848
F8.958566
tp2986
a(g11
I289
F0.0
F30.133046
tp2987
a(g11
I313
F0.0
F30.091252
tp2988
a(S'Solve_Succeeded'
p2989
I101
F3.973839564532119
F9.475148
tp2990
a(S'Solve_Succeeded'
p2991
I155
F3.9926823316770825
F12.379399
tp2992
a(g11
I322
F0.0
F30.089466
tp2993
a(S'Solve_Succeeded'
p2994
I152
F3.9979214583211404
F15.564774
tp2995
a(S'Solve_Succeeded'
p2996
I61
F3.9934982101224596
F5.141858
tp2997
a(g11
I340
F0.0
F30.076297
tp2998
a(S'Solve_Succeeded'
p2999
I44
F3.9156426082135756
F3.627553
tp3000
a(S'Solve_Succeeded'
p3001
I138
F4.139914340816765
F10.355264
tp3002
a(S'Infeasible_Problem_Detected'
p3003
I155
F3.977753189189414
F27.861519
tp3004
a(g11
I295
F0.0
F30.085234
tp3005
a(S'Solve_Succeeded'
p3006
I111
F4.09314329664242
F12.479013
tp3007
a(S'Solve_Succeeded'
p3008
I85
F3.964928769739638
F6.612032
tp3009
a(g11
I205
F0.0
F30.242789
tp3010
a(S'Solve_Succeeded'
p3011
I96
F3.924467235106812
F7.314225
tp3012
a(S'Solve_Succeeded'
p3013
I99
F3.90346103628888
F9.035073
tp3014
a(S'Solve_Succeeded'
p3015
I59
F3.9448511398907926
F7.086872
tp3016
a(S'Solve_Succeeded'
p3017
I98
F3.9636393390462707
F7.34546
tp3018
a(S'Solve_Succeeded'
p3019
I98
F4.006360537720955
F8.158809
tp3020
a(g11
I306
F0.0
F30.167447
tp3021
a(S'Solve_Succeeded'
p3022
I95
F3.9927892835721197
F7.431031
tp3023
a(S'Solve_Succeeded'
p3024
I145
F3.9484939575578473
F10.327204
tp3025
a(S'Solve_Succeeded'
p3026
I78
F3.911766040855998
F8.549372
tp3027
a(S'Solve_Succeeded'
p3028
I87
F4.0446512702198065
F8.014284
tp3029
a(g11
I301
F0.0
F30.080701
tp3030
a(S'Solve_Succeeded'
p3031
I131
F4.0828922399766405
F9.953526
tp3032
a(g11
I355
F0.0
F30.130749
tp3033
a(S'Solve_Succeeded'
p3034
I67
F4.092215100373588
F6.010352
tp3035
a(g11
I306
F0.0
F30.070519
tp3036
a(S'Solve_Succeeded'
p3037
I69
F3.913958970567764
F5.597129
tp3038
a(S'Solve_Succeeded'
p3039
I83
F3.9431462993896123
F8.403548
tp3040
a(S'Solve_Succeeded'
p3041
I101
F4.048662739326068
F7.475729
tp3042
a(g11
I357
F0.0
F30.098519
tp3043
a(S'Solve_Succeeded'
p3044
I98
F3.9098057517697304
F9.131339
tp3045
a(S'Solve_Succeeded'
p3046
I206
F3.922203103742328
F19.697668
tp3047
a(S'Solve_Succeeded'
p3048
I187
F4.223229672145664
F19.204089
tp3049
a(S'Solve_Succeeded'
p3050
I69
F3.922003331062034
F5.329263
tp3051
a(S'Solve_Succeeded'
p3052
I55
F4.071741987428596
F5.276594
tp3053
a(g11
I224
F0.0
F30.075507
tp3054
a(S'Solve_Succeeded'
p3055
I77
F4.0561421457831734
F6.698011
tp3056
a(S'Solve_Succeeded'
p3057
I92
F4.003197394175609
F8.169387
tp3058
a(S'Solve_Succeeded'
p3059
I49
F3.9368191289019006
F3.852592
tp3060
a(S'Solve_Succeeded'
p3061
I75
F3.9252972471851524
F6.006678
tp3062
a(S'Solve_Succeeded'
p3063
I112
F4.1088144263465365
F11.45961
tp3064
a(S'Solve_Succeeded'
p3065
I40
F3.9747691365237077
F2.677471
tp3066
a(S'Solve_Succeeded'
p3067
I58
F3.983148627970446
F4.670158
tp3068
a(S'Solve_Succeeded'
p3069
I57
F4.065850402059196
F5.705211
tp3070
a(S'Solve_Succeeded'
p3071
I198
F4.017390566644487
F17.263577
tp3072
a(S'Solve_Succeeded'
p3073
I62
F4.031527246091542
F6.044648
tp3074
a(S'Solve_Succeeded'
p3075
I82
F4.117408255408502
F6.933203
tp3076
a(S'Solve_Succeeded'
p3077
I181
F4.043089501319913
F12.159551
tp3078
a(S'Solve_Succeeded'
p3079
I110
F3.990307695123442
F8.534725
tp3080
a(S'Solve_Succeeded'
p3081
I90
F4.1152916005520614
F6.64481
tp3082
a(S'Solve_Succeeded'
p3083
I97
F4.085398767448649
F8.310027
tp3084
a(g11
I328
F0.0
F30.101853
tp3085
a(S'Solve_Succeeded'
p3086
I142
F4.209850747198838
F12.608076
tp3087
a(S'Solve_Succeeded'
p3088
I55
F4.063362719556206
F4.423763
tp3089
a(g11
I502
F0.0
F30.102588
tp3090
a(g11
I315
F0.0
F30.190869
tp3091
a(S'Solve_Succeeded'
p3092
I142
F4.182553967687674
F11.426919
tp3093
a(g11
I325
F0.0
F30.140914
tp3094
a(g11
I314
F0.0
F30.111883
tp3095
a(S'Infeasible_Problem_Detected'
p3096
I171
F4.054436154725454
F19.3442
tp3097
a(S'Solve_Succeeded'
p3098
I86
F4.003477612911875
F6.239657
tp3099
a(S'Solve_Succeeded'
p3100
I190
F4.060625433021792
F17.776549
tp3101
a(S'Infeasible_Problem_Detected'
p3102
I302
F4.6633071767755245
F27.533909
tp3103
a(S'Solve_Succeeded'
p3104
I91
F4.036701537377808
F7.164718
tp3105
a(S'Solve_Succeeded'
p3106
I155
F4.017653109198507
F13.695091
tp3107
a(g11
I300
F0.0
F30.162398
tp3108
a(g11
I464
F0.0
F30.127098
tp3109
a(S'Solve_Succeeded'
p3110
I83
F3.9398501219622215
F6.523978
tp3111
a(g11
I278
F0.0
F30.110569
tp3112
a(S'Solve_Succeeded'
p3113
I86
F4.053016964053788
F6.895534
tp3114
a(S'Solve_Succeeded'
p3115
I113
F4.018824524683342
F8.428607
tp3116
a(S'Solve_Succeeded'
p3117
I50
F3.959519122562476
F3.68322
tp3118
a(S'Solve_Succeeded'
p3119
I135
F3.9407066973570104
F12.088636
tp3120
a(S'Solve_Succeeded'
p3121
I248
F4.015431329704174
F23.747607
tp3122
a(S'Solve_Succeeded'
p3123
I111
F4.030494318348171
F8.088889
tp3124
a(g11
I366
F0.0
F30.115415
tp3125
a(g11
I443
F0.0
F30.131602
tp3126
a(S'Solve_Succeeded'
p3127
I43
F3.9907833891224707
F3.492985
tp3128
a(S'Solve_Succeeded'
p3129
I53
F4.071154150453277
F5.514991
tp3130
a(S'Solve_Succeeded'
p3131
I103
F3.9826746156670594
F7.689685
tp3132
a(S'Solve_Succeeded'
p3133
I83
F3.967574602427464
F8.328377
tp3134
a(g11
I318
F0.0
F30.107481
tp3135
a(S'Solve_Succeeded'
p3136
I84
F3.951860649553091
F7.991069
tp3137
a(S'Solve_Succeeded'
p3138
I92
F3.9693127575364735
F7.605024
tp3139
a(S'Solve_Succeeded'
p3140
I90
F3.9540807978455064
F6.452734
tp3141
a(S'Solve_Succeeded'
p3142
I48
F3.912430155031547
F4.028121
tp3143
a(S'Solve_Succeeded'
p3144
I67
F3.9830837009707234
F5.654846
tp3145
a(g11
I355
F0.0
F30.077597
tp3146
a(g11
I313
F0.0
F30.145447
tp3147
a(S'Solve_Succeeded'
p3148
I93
F3.967230246195809
F7.2787
tp3149
a(g11
I524
F0.0
F30.125816
tp3150
a(g11
I206
F0.0
F30.076803
tp3151
a(S'Solve_Succeeded'
p3152
I119
F4.033246622105955
F10.493808
tp3153
a(S'Solve_Succeeded'
p3154
I62
F3.996012426879817
F4.743169
tp3155
a(g11
I258
F0.0
F30.117765
tp3156
a(S'Solve_Succeeded'
p3157
I141
F4.131075281826496
F15.802989
tp3158
a(S'Solve_Succeeded'
p3159
I140
F4.191512680388371
F12.603664
tp3160
a(S'Solve_Succeeded'
p3161
I109
F3.9465406629466147
F8.078061
tp3162
a(S'Solve_Succeeded'
p3163
I336
F3.961368343650565
F28.121102
tp3164
a(g11
I325
F0.0
F30.113807
tp3165
a(g11
I308
F0.0
F30.239727
tp3166
a(S'Solve_Succeeded'
p3167
I85
F4.129558871033409
F6.216395
tp3168
a(g11
I337
F0.0
F30.232209
tp3169
a(g11
I191
F0.0
F30.207164
tp3170
a(S'Solve_Succeeded'
p3171
I102
F4.055776616880829
F7.714707
tp3172
a(S'Solve_Succeeded'
p3173
I51
F4.011044470977215
F5.27007
tp3174
a(S'Solve_Succeeded'
p3175
I104
F4.057484431920547
F8.088281
tp3176
a(S'Solve_Succeeded'
p3177
I92
F4.070654833378378
F8.721032
tp3178
a(S'Solve_Succeeded'
p3179
I56
F4.040255242924088
F4.70435
tp3180
a(S'Solve_Succeeded'
p3181
I67
F4.024796026831921
F6.030284
tp3182
a(S'Solve_Succeeded'
p3183
I181
F3.9514041159028075
F17.59334
tp3184
a(S'Solve_Succeeded'
p3185
I55
F3.9903325418819726
F4.351185
tp3186
a(S'Solve_Succeeded'
p3187
I197
F3.987753374800527
F20.916918
tp3188
a(S'Solve_Succeeded'
p3189
I55
F4.04658223423946
F4.515449
tp3190
a(S'Solve_Succeeded'
p3191
I60
F3.9986205639430716
F4.914697
tp3192
a(S'Solve_Succeeded'
p3193
I118
F4.026362778274003
F10.039638
tp3194
a(S'Solve_Succeeded'
p3195
I90
F3.9573311384422563
F6.80808
tp3196
a(S'Solve_Succeeded'
p3197
I164
F4.222787957765006
F14.850593
tp3198
a(S'Solve_Succeeded'
p3199
I95
F4.103120135440156
F7.677586
tp3200
a(S'Solve_Succeeded'
p3201
I86
F4.027909910570285
F7.034529
tp3202
a(S'Solve_Succeeded'
p3203
I185
F4.095771244805869
F17.702214
tp3204
a(g11
I242
F0.0
F30.103435
tp3205
a(S'Solve_Succeeded'
p3206
I192
F4.094970266755106
F20.944374
tp3207
a(S'Solve_Succeeded'
p3208
I155
F4.003149064453393
F10.412985
tp3209
a(S'Solve_Succeeded'
p3210
I42
F3.9438881792584297
F2.929738
tp3211
a(S'Solve_Succeeded'
p3212
I178
F4.013860613641179
F21.265495
tp3213
a(S'Solve_Succeeded'
p3214
I79
F3.973149925263158
F6.921924
tp3215
a(g11
I461
F0.0
F30.107984
tp3216
a(g11
I298
F0.0
F30.078965
tp3217
a(S'Solve_Succeeded'
p3218
I76
F4.024172791965389
F6.807937
tp3219
a(S'Solve_Succeeded'
p3220
I104
F4.1992970764185324
F8.98855
tp3221
a(g11
I339
F0.0
F30.081175
tp3222
a(S'Solve_Succeeded'
p3223
I69
F3.937760274098969
F7.990799
tp3224
a(g11
I317
F0.0
F30.099623
tp3225
a(S'Solve_Succeeded'
p3226
I108
F4.077332027229958
F7.864491
tp3227
a(S'Solve_Succeeded'
p3228
I89
F3.9419225583492428
F7.589093
tp3229
a(S'Solve_Succeeded'
p3230
I137
F3.9365081383830685
F9.679713
tp3231
a(S'Solve_Succeeded'
p3232
I63
F4.119604619805923
F6.640675
tp3233
a(g11
I496
F0.0
F30.091359
tp3234
a(S'Solve_Succeeded'
p3235
I87
F4.163788332671858
F8.639794
tp3236
a(S'Solve_Succeeded'
p3237
I184
F4.055900800154438
F12.202381
tp3238
a(S'Solve_Succeeded'
p3239
I70
F3.9279273026904837
F7.773294
tp3240
a(S'Solve_Succeeded'
p3241
I164
F4.026286756161531
F16.064329
tp3242
a(S'Solve_Succeeded'
p3243
I54
F3.9555621006038932
F4.165569
tp3244
a(S'Solve_Succeeded'
p3245
I144
F3.972905399167682
F9.925202
tp3246
a(S'Solve_Succeeded'
p3247
I118
F4.063962133853833
F7.932831
tp3248
a(g11
I147
F0.0
F30.145359
tp3249
a(S'Solve_Succeeded'
p3250
I52
F3.9265310583735826
F4.248195
tp3251
a(g11
I327
F0.0
F30.114969
tp3252
a(S'Solve_Succeeded'
p3253
I105
F4.042125017764854
F8.852735
tp3254
a(g11
I325
F0.0
F30.122689
tp3255
a(S'Solve_Succeeded'
p3256
I100
F3.978621627866953
F7.655087
tp3257
a(S'Solve_Succeeded'
p3258
I100
F4.074679691479471
F8.388773
tp3259
a(S'Solve_Succeeded'
p3260
I215
F3.970191482532355
F19.728197
tp3261
a(S'Solve_Succeeded'
p3262
I100
F3.9234270891767866
F7.435355
tp3263
a(g11
I325
F0.0
F30.129692
tp3264
a(S'Solve_Succeeded'
p3265
I96
F4.115558473988741
F7.640783
tp3266
a(S'Solve_Succeeded'
p3267
I79
F4.077452737467217
F8.36585
tp3268
a(S'Solve_Succeeded'
p3269
I144
F3.9956213154623748
F11.838992
tp3270
a(S'Solve_Succeeded'
p3271
I134
F3.960161231837283
F10.204249
tp3272
a(S'Solve_Succeeded'
p3273
I116
F4.102180074695394
F10.562449
tp3274
a(S'Solve_Succeeded'
p3275
I123
F4.0647794455905775
F10.661564
tp3276
a(S'Solve_Succeeded'
p3277
I59
F4.085406432056429
F6.139481
tp3278
a(S'Solve_Succeeded'
p3279
I59
F3.9142869710707724
F4.683707
tp3280
a(g11
I504
F0.0
F30.13138
tp3281
a(S'Solve_Succeeded'
p3282
I197
F4.108385812755822
F17.632919
tp3283
a(g11
I299
F0.0
F30.10042
tp3284
a(S'Solve_Succeeded'
p3285
I67
F4.1013246634950615
F5.064361
tp3286
a(S'Solve_Succeeded'
p3287
I115
F4.0669084403080955
F9.690133
tp3288
a(S'Solve_Succeeded'
p3289
I122
F4.02588097718566
F9.507115
tp3290
a(S'Solve_Succeeded'
p3291
I82
F3.938117464787262
F6.48019
tp3292
a(S'Infeasible_Problem_Detected'
p3293
I193
F4.145337665821233
F23.706004
tp3294
a(g11
I351
F0.0
F30.069874
tp3295
a(S'Solve_Succeeded'
p3296
I153
F4.060351216179956
F13.66979
tp3297
a(g11
I291
F0.0
F30.166924
tp3298
a(S'Solve_Succeeded'
p3299
I93
F3.8868813398341238
F7.482202
tp3300
a(S'Solve_Succeeded'
p3301
I129
F4.0784628118170865
F11.371659
tp3302
a(S'Solve_Succeeded'
p3303
I92
F3.908172405202171
F7.280643
tp3304
a(S'Solve_Succeeded'
p3305
I135
F3.908580050448535
F12.569351
tp3306
a(S'Solve_Succeeded'
p3307
I124
F4.256071403530509
F9.97101
tp3308
a(g11
I214
F0.0
F30.101122
tp3309
a(g11
I426
F0.0
F30.074426
tp3310
a(S'Solve_Succeeded'
p3311
I103
F4.12377410303215
F7.436588
tp3312
a(S'Solve_Succeeded'
p3313
I114
F4.018117904763861
F7.365395
tp3314
a(S'Solve_Succeeded'
p3315
I96
F4.042238242133627
F9.014716
tp3316
a(S'Solve_Succeeded'
p3317
I55
F3.918697735033093
F4.516778
tp3318
a(S'Solve_Succeeded'
p3319
I114
F4.093619785800104
F9.109395
tp3320
a(S'Solve_Succeeded'
p3321
I197
F4.137907925805573
F17.323271
tp3322
a(S'Solve_Succeeded'
p3323
I76
F3.957516736890563
F5.210492
tp3324
a(S'Solve_Succeeded'
p3325
I68
F3.99350176381965
F6.300866
tp3326
a(S'Solve_Succeeded'
p3327
I60
F4.085811225629924
F4.660414
tp3328
a(S'Solve_Succeeded'
p3329
I91
F3.937395664446434
F6.181082
tp3330
a(S'Solve_Succeeded'
p3331
I176
F3.9919905366918194
F17.473392
tp3332
a(S'Solve_Succeeded'
p3333
I147
F4.058270219497578
F13.630794
tp3334
a(S'Solve_Succeeded'
p3335
I69
F4.026657808897874
F6.339119
tp3336
a(S'Solve_Succeeded'
p3337
I74
F3.91941015362685
F6.324324
tp3338
a(S'Solve_Succeeded'
p3339
I112
F4.141929370372198
F10.133345
tp3340
a(S'Solve_Succeeded'
p3341
I120
F3.9050807908200813
F11.735983
tp3342
a(S'Solve_Succeeded'
p3343
I105
F4.053741620097343
F7.953232
tp3344
a(S'Solve_Succeeded'
p3345
I95
F3.9158915144418307
F8.408805
tp3346
a(S'Solve_Succeeded'
p3347
I114
F4.011518792379787
F9.795897
tp3348
a(g11
I312
F0.0
F30.084157
tp3349
a(S'Solve_Succeeded'
p3350
I84
F4.109926350808789
F8.316071
tp3351
a(g11
I293
F0.0
F30.304118
tp3352
a(g11
I484
F0.0
F30.096189
tp3353
a(S'Solve_Succeeded'
p3354
I164
F3.8987326688746937
F14.62817
tp3355
a(S'Solve_Succeeded'
p3356
I284
F4.087017525581211
F29.203782
tp3357
a(g11
I503
F0.0
F30.089605
tp3358
a(S'Solve_Succeeded'
p3359
I110
F4.105229325981511
F9.968824
tp3360
a(S'Solve_Succeeded'
p3361
I40
F4.040376383125952
F3.297225
tp3362
a(S'Solve_Succeeded'
p3363
I98
F4.062507741635009
F7.286818
tp3364
a(S'Solve_Succeeded'
p3365
I93
F3.920510665993021
F7.293012
tp3366
a(g11
I257
F0.0
F30.064928
tp3367
a(S'Solve_Succeeded'
p3368
I104
F4.058160111887477
F8.595643
tp3369
a(S'Solve_Succeeded'
p3370
I82
F4.124647413717632
F9.671455
tp3371
a(S'Solve_Succeeded'
p3372
I147
F4.194188542744706
F14.376187
tp3373
a(S'Solve_Succeeded'
p3374
I131
F4.091671072665686
F10.967822
tp3375
a(S'Solve_Succeeded'
p3376
I99
F4.001581516303505
F7.693248
tp3377
a(g11
I357
F0.0
F30.07706
tp3378
a(S'Solve_Succeeded'
p3379
I55
F3.9249515651023352
F4.078509
tp3380
a(g11
I160
F0.0
F30.124358
tp3381
a(S'Solve_Succeeded'
p3382
I63
F4.060468691942773
F5.100641
tp3383
a(g11
I300
F0.0
F30.070909
tp3384
a(S'Solve_Succeeded'
p3385
I78
F3.9982389569883003
F6.577419
tp3386
a(S'Solve_Succeeded'
p3387
I86
F3.931323820721602
F6.030279
tp3388
a(S'Solve_Succeeded'
p3389
I54
F3.9459372015119003
F4.613462
tp3390
a(S'Infeasible_Problem_Detected'
p3391
I91
F3.9386568925527228
F20.941561
tp3392
a(S'Solve_Succeeded'
p3393
I107
F3.9227034543674493
F7.645698
tp3394
a(S'Solve_Succeeded'
p3395
I164
F4.075779100443395
F16.405036
tp3396
a(S'Solve_Succeeded'
p3397
I56
F3.9143325073140134
F5.169684
tp3398
a(S'Solve_Succeeded'
p3399
I98
F3.988120353494326
F7.925576
tp3400
a(S'Solve_Succeeded'
p3401
I94
F4.016600490393072
F8.551258
tp3402
a(S'Solve_Succeeded'
p3403
I97
F3.9924722221033635
F10.094618
tp3404
a(S'Solve_Succeeded'
p3405
I136
F4.020652000968707
F11.660398
tp3406
a(g11
I338
F0.0
F30.123611
tp3407
a(g11
I349
F0.0
F30.138947
tp3408
a(g11
I249
F0.0
F30.160721
tp3409
a(S'Solve_Succeeded'
p3410
I72
F4.024803791226729
F6.46846
tp3411
a(S'Solve_Succeeded'
p3412
I47
F4.005467813424102
F3.515488
tp3413
a(S'Solve_Succeeded'
p3414
I104
F4.077380778938922
F8.726124
tp3415
a(g11
I282
F0.0
F30.092801
tp3416
a(S'Solve_Succeeded'
p3417
I71
F3.941365135619344
F7.204576
tp3418
a(S'Solve_Succeeded'
p3419
I77
F3.9375861137977126
F6.150609
tp3420
a(S'Solve_Succeeded'
p3421
I192
F4.037133449530611
F20.226168
tp3422
a(S'Solve_Succeeded'
p3423
I65
F4.071576047737682
F5.071546
tp3424
a(S'Solve_Succeeded'
p3425
I75
F4.070487766791098
F6.062725
tp3426
a(g11
I241
F0.0
F30.11017
tp3427
a(S'Solve_Succeeded'
p3428
I70
F3.9550901835104675
F5.504633
tp3429
a(S'Solve_Succeeded'
p3430
I64
F4.122312441735495
F6.036936
tp3431
a(S'Solve_Succeeded'
p3432
I215
F4.025976756988726
F16.839103
tp3433
a(S'Solve_Succeeded'
p3434
I76
F3.9646615288842413
F7.110212
tp3435
a(g11
I518
F0.0
F30.105602
tp3436
a(S'Infeasible_Problem_Detected'
p3437
I180
F3.9763915219135737
F26.701901
tp3438
a(g11
I371
F0.0
F30.134349
tp3439
a(S'Solve_Succeeded'
p3440
I51
F4.067848250287111
F4.329912
tp3441
a(S'Solve_Succeeded'
p3442
I81
F4.075260187728314
F6.089952
tp3443
a(S'Solve_Succeeded'
p3444
I162
F4.169201621571198
F14.362225
tp3445
a(S'Solve_Succeeded'
p3446
I69
F4.033608771735276
F8.35716
tp3447
a(S'Solve_Succeeded'
p3448
I90
F4.069072133132781
F8.228229
tp3449
a(S'Solve_Succeeded'
p3450
I69
F4.116896421588325
F6.513478
tp3451
a(g11
I284
F0.0
F30.091637
tp3452
a(g11
I294
F0.0
F30.115627
tp3453
a(S'Solve_Succeeded'
p3454
I150
F3.9609626406458247
F12.825904
tp3455
a(g11
I473
F0.0
F30.094179
tp3456
a(g11
I342
F0.0
F30.127207
tp3457
a(S'Solve_Succeeded'
p3458
I133
F3.999974053914123
F10.488854
tp3459
a(S'Solve_Succeeded'
p3460
I140
F3.9874368527127877
F13.339641
tp3461
a(S'Solve_Succeeded'
p3462
I106
F4.020792052364483
F8.813987
tp3463
a(S'Solve_Succeeded'
p3464
I143
F3.9449590770515286
F11.342037
tp3465
a(g11
I326
F0.0
F30.130677
tp3466
a(S'Solve_Succeeded'
p3467
I67
F3.956887267230871
F5.131506
tp3468
a(S'Solve_Succeeded'
p3469
I128
F4.066735941423307
F9.46944
tp3470
a(g11
I320
F0.0
F30.130763
tp3471
a(S'Solve_Succeeded'
p3472
I155
F3.914166480966599
F15.457129
tp3473
a(S'Solve_Succeeded'
p3474
I101
F4.088604328786555
F7.908166
tp3475
a(S'Solve_Succeeded'
p3476
I62
F4.01989638926402
F4.692675
tp3477
a(S'Solve_Succeeded'
p3478
I234
F3.9848953819555697
F19.643371
tp3479
a(S'Solve_Succeeded'
p3480
I83
F4.102912869816944
F7.113193
tp3481
a(S'Solve_Succeeded'
p3482
I154
F3.9369859816052064
F10.507926
tp3483
a(S'Solve_Succeeded'
p3484
I65
F4.011827297465024
F6.827246
tp3485
a(g11
I463
F0.0
F30.118776
tp3486
a(S'Infeasible_Problem_Detected'
p3487
I131
F3.9788636922913114
F22.879553
tp3488
a(g11
I329
F0.0
F30.101901
tp3489
a(g11
I240
F0.0
F30.130306
tp3490
a(S'Solve_Succeeded'
p3491
I70
F3.9964159431030284
F6.884231
tp3492
a(S'Solve_Succeeded'
p3493
I110
F3.8994784410659475
F11.135585
tp3494
a(S'Solve_Succeeded'
p3495
I145
F4.465159176308635
F15.033892
tp3496
a(S'Solve_Succeeded'
p3497
I55
F4.01114905007894
F4.229718
tp3498
a(S'Solve_Succeeded'
p3499
I54
F4.067391137381784
F4.019514
tp3500
a(S'Solve_Succeeded'
p3501
I178
F3.9999705116388586
F15.860018
tp3502
a(S'Solve_Succeeded'
p3503
I79
F4.094346189338039
F5.979693
tp3504
a(S'Solve_Succeeded'
p3505
I140
F4.085221581262865
F13.039268
tp3506
a(S'Solve_Succeeded'
p3507
I98
F3.9176212120417078
F7.723041
tp3508
a(g11
I282
F0.0
F30.098186
tp3509
a(S'Solve_Succeeded'
p3510
I62
F4.175719587007089
F5.210016
tp3511
a(S'Solve_Succeeded'
p3512
I89
F4.039400576337088
F8.69906
tp3513
a(S'Solve_Succeeded'
p3514
I297
F4.169567694940021
F29.596651
tp3515
a(S'Solve_Succeeded'
p3516
I155
F3.9501479633927663
F14.483533
tp3517
a(S'Solve_Succeeded'
p3518
I152
F4.102000781220137
F15.73594
tp3519
a(S'Solve_Succeeded'
p3520
I63
F4.021368672316369
F5.257453
tp3521
a(S'Solve_Succeeded'
p3522
I142
F3.9867108571829237
F9.891181
tp3523
a(g11
I222
F0.0
F30.155985
tp3524
a(S'Solve_Succeeded'
p3525
I107
F4.06466028792756
F9.897711
tp3526
a(S'Solve_Succeeded'
p3527
I47
F3.9088532718582316
F3.657491
tp3528
a(S'Solve_Succeeded'
p3529
I174
F4.1568888495078005
F19.60487
tp3530
a(g11
I293
F0.0
F30.076695
tp3531
a(S'Solve_Succeeded'
p3532
I68
F4.06614826477245
F6.284502
tp3533
a(S'Solve_Succeeded'
p3534
I55
F3.9208802967404557
F5.43165
tp3535
a(g11
I300
F0.0
F30.193006
tp3536
a(g11
I293
F0.0
F30.077713
tp3537
a(S'Solve_Succeeded'
p3538
I41
F4.046732346421658
F3.016924
tp3539
a(S'Solve_Succeeded'
p3540
I193
F4.345349822968898
F18.99079
tp3541
a(g11
I288
F0.0
F30.163741
tp3542
a(S'Solve_Succeeded'
p3543
I141
F3.999845314862126
F10.323349
tp3544
a(g11
I491
F0.0
F30.0991
tp3545
a(S'Solve_Succeeded'
p3546
I115
F4.1083604347631155
F11.187175
tp3547
a(S'Solve_Succeeded'
p3548
I92
F3.915895991466268
F7.556746
tp3549
a(S'Solve_Succeeded'
p3550
I93
F4.113557389886564
F8.077969
tp3551
a(S'Solve_Succeeded'
p3552
I105
F3.9306977990855168
F9.420834
tp3553
asS'2.05'
p3554
(lp3555
(S'Solve_Succeeded'
p3556
I107
F4.082968103756577
F6.199454
tp3557
a(S'Solve_Succeeded'
p3558
I86
F3.953654696794656
F4.880102
tp3559
a(S'Solve_Succeeded'
p3560
I59
F3.9562575067787202
F3.459792
tp3561
a(S'Infeasible_Problem_Detected'
p3562
I206
F3.9733938117634704
F28.527981
tp3563
a(S'Solve_Succeeded'
p3564
I69
F4.063490806539025
F3.730352
tp3565
a(S'Solve_Succeeded'
p3566
I45
F3.9612304431723917
F3.611682
tp3567
a(S'Solve_Succeeded'
p3568
I102
F4.18088267951072
F6.23585
tp3569
a(S'Solve_Succeeded'
p3570
I111
F3.9635250586603923
F6.28895
tp3571
a(S'Solve_Succeeded'
p3572
I46
F4.02327665999
F2.621633
tp3573
a(S'Solve_Succeeded'
p3574
I157
F3.9043865168694603
F9.68462
tp3575
a(S'Solve_Succeeded'
p3576
I75
F4.129670850856123
F3.931694
tp3577
a(S'Solve_Succeeded'
p3578
I53
F3.94131334709509
F2.724707
tp3579
a(g11
I378
F0.0
F30.107596
tp3580
a(g11
I472
F0.0
F30.108542
tp3581
a(g11
I379
F0.0
F30.20604
tp3582
a(S'Solve_Succeeded'
p3583
I148
F4.0234462645559494
F8.532203
tp3584
a(S'Solve_Succeeded'
p3585
I60
F3.957393203253223
F3.974975
tp3586
a(S'Solve_Succeeded'
p3587
I64
F4.117301952853234
F3.619428
tp3588
a(S'Solve_Succeeded'
p3589
I231
F3.9390392948263786
F14.931021
tp3590
a(S'Infeasible_Problem_Detected'
p3591
I47
F3.9553704489871895
F12.862229
tp3592
a(S'Solve_Succeeded'
p3593
I38
F3.963724573914756
F1.83551
tp3594
a(S'Solve_Succeeded'
p3595
I79
F3.980176533628075
F4.548204
tp3596
a(g11
I439
F0.0
F30.097772
tp3597
a(S'Solve_Succeeded'
p3598
I48
F4.073125174233622
F2.490572
tp3599
a(g11
I460
F0.0
F30.111952
tp3600
a(S'Solve_Succeeded'
p3601
I83
F3.9756394868721228
F4.865915
tp3602
a(S'Solve_Succeeded'
p3603
I34
F3.917651847490408
F1.925335
tp3604
a(S'Solve_Succeeded'
p3605
I78
F3.984000876655651
F4.557196
tp3606
a(g11
I431
F0.0
F30.092612
tp3607
a(g11
I337
F0.0
F30.131814
tp3608
a(S'Solve_Succeeded'
p3609
I45
F3.9146291527552526
F2.186981
tp3610
a(S'Solve_Succeeded'
p3611
I35
F3.965418123565093
F2.019739
tp3612
a(S'Solve_Succeeded'
p3613
I86
F3.9437637653047797
F5.256006
tp3614
a(S'Solve_Succeeded'
p3615
I77
F3.9973809700860405
F5.019173
tp3616
a(S'Infeasible_Problem_Detected'
p3617
I380
F4.239032658319692
F27.478406
tp3618
a(S'Solve_Succeeded'
p3619
I127
F3.921708254623169
F8.655722
tp3620
a(S'Solve_Succeeded'
p3621
I182
F4.101431831728758
F14.540399
tp3622
a(g11
I433
F0.0
F30.183911
tp3623
a(S'Solve_Succeeded'
p3624
I74
F4.056497900181491
F5.564648
tp3625
a(S'Solve_Succeeded'
p3626
I148
F4.162310669971485
F8.911761
tp3627
a(g11
I409
F0.0
F30.086019
tp3628
a(g11
I416
F0.0
F30.099439
tp3629
a(S'Solve_Succeeded'
p3630
I64
F4.058966015765028
F2.985079
tp3631
a(S'Solve_Succeeded'
p3632
I99
F4.068746408153689
F5.308044
tp3633
a(g11
I158
F0.0
F30.107756
tp3634
a(S'Solve_Succeeded'
p3635
I74
F3.941471112200987
F3.987227
tp3636
a(g11
I454
F0.0
F30.10528
tp3637
a(S'Solve_Succeeded'
p3638
I48
F3.995364608425387
F2.616004
tp3639
a(S'Solve_Succeeded'
p3640
I268
F3.918360274577148
F18.15568
tp3641
a(S'Solve_Succeeded'
p3642
I62
F4.080795523910733
F3.943483
tp3643
a(S'Solve_Succeeded'
p3644
I138
F3.9827840427679626
F8.331873
tp3645
a(S'Solve_Succeeded'
p3646
I59
F4.035928592113154
F3.528745
tp3647
a(g11
I385
F0.0
F30.113703
tp3648
a(S'Solve_Succeeded'
p3649
I135
F4.13219309232309
F6.882009
tp3650
a(S'Solve_Succeeded'
p3651
I37
F3.9876832182635353
F2.16539
tp3652
a(g11
I486
F0.0
F30.164721
tp3653
a(S'Solve_Succeeded'
p3654
I60
F4.040619576418405
F3.165059
tp3655
a(S'Solve_Succeeded'
p3656
I68
F3.9253549178640164
F4.608527
tp3657
a(g11
I322
F0.0
F30.109589
tp3658
a(S'Solve_Succeeded'
p3659
I44
F3.977055764933784
F2.604218
tp3660
a(S'Solve_Succeeded'
p3661
I88
F4.08478400560553
F4.888863
tp3662
a(S'Solve_Succeeded'
p3663
I84
F4.01003084798331
F5.406928
tp3664
a(g11
I473
F0.0
F30.12917
tp3665
a(S'Solve_Succeeded'
p3666
I54
F3.9979168808349037
F3.082518
tp3667
a(g11
I324
F0.0
F30.087986
tp3668
a(S'Solve_Succeeded'
p3669
I125
F4.068788207617862
F7.800869
tp3670
a(S'Solve_Succeeded'
p3671
I56
F3.978052915848016
F3.400768
tp3672
a(S'Solve_Succeeded'
p3673
I42
F3.9865501566194728
F2.40085
tp3674
a(S'Solve_Succeeded'
p3675
I43
F4.093124368614079
F2.341133
tp3676
a(S'Solve_Succeeded'
p3677
I69
F3.954895245322301
F3.774073
tp3678
a(g11
I430
F0.0
F30.143506
tp3679
a(S'Solve_Succeeded'
p3680
I56
F4.0410279038768975
F3.258299
tp3681
a(S'Solve_Succeeded'
p3682
I107
F3.930797948206223
F6.953642
tp3683
a(S'Solve_Succeeded'
p3684
I223
F3.928974016456898
F12.97611
tp3685
a(S'Solve_Succeeded'
p3686
I124
F3.964259281651578
F7.028832
tp3687
a(S'Solve_Succeeded'
p3688
I31
F4.009941162172816
F1.263083
tp3689
a(S'Solve_Succeeded'
p3690
I101
F4.079246820223722
F6.129014
tp3691
a(g11
I424
F0.0
F30.09777
tp3692
a(S'Solve_Succeeded'
p3693
I66
F3.9338154818824433
F3.784982
tp3694
a(S'Solve_Succeeded'
p3695
I38
F4.106637937333109
F2.062371
tp3696
a(S'Solve_Succeeded'
p3697
I91
F4.056990502846098
F5.747257
tp3698
a(S'Solve_Succeeded'
p3699
I102
F4.110253977803344
F5.38105
tp3700
a(S'Solve_Succeeded'
p3701
I53
F3.9318131128869935
F2.420114
tp3702
a(S'Solve_Succeeded'
p3703
I94
F3.993013521344126
F4.945121
tp3704
a(S'Solve_Succeeded'
p3705
I54
F3.9600059978164124
F3.662242
tp3706
a(S'Solve_Succeeded'
p3707
I38
F3.985446962882883
F2.036673
tp3708
a(S'Solve_Succeeded'
p3709
I23
F3.9707976413665165
F1.133935
tp3710
a(g11
I412
F0.0
F30.161622
tp3711
a(S'Solve_Succeeded'
p3712
I90
F3.9692500372082486
F5.830466
tp3713
a(S'Solve_Succeeded'
p3714
I185
F4.018603129719113
F10.216257
tp3715
a(S'Solve_Succeeded'
p3716
I40
F3.9312628810732853
F2.293401
tp3717
a(S'Solve_Succeeded'
p3718
I119
F4.0212878955072195
F6.150665
tp3719
a(S'Solve_Succeeded'
p3720
I93
F4.181261440522223
F5.800763
tp3721
a(S'Solve_Succeeded'
p3722
I76
F4.078890230824987
F4.066932
tp3723
a(S'Solve_Succeeded'
p3724
I133
F3.9121932608792003
F7.059516
tp3725
a(S'Solve_Succeeded'
p3726
I90
F3.9196942338323746
F6.185947
tp3727
a(S'Solve_Succeeded'
p3728
I166
F3.9480927314286136
F9.388856
tp3729
a(g11
I446
F0.0
F30.133719
tp3730
a(S'Solve_Succeeded'
p3731
I47
F4.02509495705149
F2.593474
tp3732
a(S'Solve_Succeeded'
p3733
I95
F3.972625477565588
F5.692405
tp3734
a(g11
I450
F0.0
F30.10603
tp3735
a(S'Solve_Succeeded'
p3736
I68
F3.9485281215162615
F3.508584
tp3737
a(S'Solve_Succeeded'
p3738
I132
F4.088965369215801
F7.513838
tp3739
a(S'Solve_Succeeded'
p3740
I99
F4.103335447182603
F5.204936
tp3741
a(S'Solve_Succeeded'
p3742
I85
F3.9730964056335436
F3.861495
tp3743
a(S'Solve_Succeeded'
p3744
I85
F4.0346310951100275
F5.478154
tp3745
a(g11
I424
F0.0
F30.179692
tp3746
a(g11
I443
F0.0
F30.095601
tp3747
a(S'Solve_Succeeded'
p3748
I77
F3.9779854007806175
F5.147816
tp3749
a(S'Solve_Succeeded'
p3750
I48
F3.9599260471602262
F4.7158
tp3751
a(g11
I412
F0.0
F30.129035
tp3752
a(S'Solve_Succeeded'
p3753
I63
F3.985561689104946
F3.753042
tp3754
a(S'Solve_Succeeded'
p3755
I60
F4.082229392885165
F3.513425
tp3756
a(g11
I436
F0.0
F30.129748
tp3757
a(S'Solve_Succeeded'
p3758
I82
F4.10574163258723
F6.562672
tp3759
a(S'Solve_Succeeded'
p3760
I346
F3.9954664882985638
F25.914997
tp3761
a(S'Solve_Succeeded'
p3762
I173
F4.15286946240089
F9.96532
tp3763
a(S'Solve_Succeeded'
p3764
I43
F4.0537260930537995
F2.141099
tp3765
a(S'Solve_Succeeded'
p3766
I49
F3.9613624001779346
F3.193198
tp3767
a(S'Solve_Succeeded'
p3768
I140
F4.13378220694217
F9.175171
tp3769
a(S'Solve_Succeeded'
p3770
I65
F4.012512366636581
F3.285243
tp3771
a(S'Solve_Succeeded'
p3772
I159
F4.022915959889505
F7.695784
tp3773
a(S'Solve_Succeeded'
p3774
I100
F3.9360802244928808
F5.964292
tp3775
a(S'Solve_Succeeded'
p3776
I89
F4.039565480629608
F4.88796
tp3777
a(S'Solve_Succeeded'
p3778
I46
F4.01427357882237
F2.236452
tp3779
a(g11
I367
F0.0
F30.168167
tp3780
a(S'Solve_Succeeded'
p3781
I53
F3.967503763611652
F2.804217
tp3782
a(S'Solve_Succeeded'
p3783
I169
F3.9988902501021393
F10.375405
tp3784
a(S'Solve_Succeeded'
p3785
I41
F3.9368175562691805
F2.509507
tp3786
a(S'Solve_Succeeded'
p3787
I112
F4.152986341887794
F7.194506
tp3788
a(S'Solve_Succeeded'
p3789
I73
F4.0720558664414455
F4.545799
tp3790
a(S'Solve_Succeeded'
p3791
I123
F3.9901681710133263
F7.511886
tp3792
a(S'Solve_Succeeded'
p3793
I35
F3.9182183113670765
F2.03734
tp3794
a(S'Infeasible_Problem_Detected'
p3795
I140
F4.587786548817935
F23.474336
tp3796
a(g11
I452
F0.0
F30.13373
tp3797
a(S'Solve_Succeeded'
p3798
I57
F3.9742177488867063
F3.480183
tp3799
a(S'Solve_Succeeded'
p3800
I104
F4.075153021784655
F5.627616
tp3801
a(S'Solve_Succeeded'
p3802
I46
F4.06271432357511
F2.689664
tp3803
a(g11
I314
F0.0
F30.076505
tp3804
a(S'Solve_Succeeded'
p3805
I75
F4.026188404575299
F3.836229
tp3806
a(g11
I402
F0.0
F30.139175
tp3807
a(S'Solve_Succeeded'
p3808
I103
F3.928965731804845
F5.891553
tp3809
a(S'Solve_Succeeded'
p3810
I70
F3.9430653020237916
F4.257494
tp3811
a(S'Solve_Succeeded'
p3812
I219
F3.9689574833919927
F16.308817
tp3813
a(S'Solve_Succeeded'
p3814
I55
F3.9490289695560863
F3.614701
tp3815
a(S'Solve_Succeeded'
p3816
I83
F4.028805232119814
F4.497185
tp3817
a(S'Solve_Succeeded'
p3818
I67
F3.9813413631616483
F3.210727
tp3819
a(S'Solve_Succeeded'
p3820
I80
F4.098362506594206
F4.431423
tp3821
a(S'Solve_Succeeded'
p3822
I44
F3.9292664457449247
F2.219736
tp3823
a(S'Solve_Succeeded'
p3824
I126
F4.073437975701332
F8.538139
tp3825
a(S'Solve_Succeeded'
p3826
I105
F3.9779140304644627
F6.256505
tp3827
a(g11
I466
F0.0
F30.122882
tp3828
a(S'Solve_Succeeded'
p3829
I195
F4.040730990296642
F10.830335
tp3830
a(S'Solve_Succeeded'
p3831
I125
F3.971368574136231
F7.808447
tp3832
a(S'Solve_Succeeded'
p3833
I116
F3.910223206190468
F7.990838
tp3834
a(g11
I424
F0.0
F30.115792
tp3835
a(S'Solve_Succeeded'
p3836
I94
F4.019065528154485
F5.136423
tp3837
a(S'Solve_Succeeded'
p3838
I97
F3.9497212626232554
F4.702893
tp3839
a(S'Solve_Succeeded'
p3840
I79
F4.068276867369841
F4.664086
tp3841
a(S'Solve_Succeeded'
p3842
I96
F3.9353551098908657
F5.563251
tp3843
a(g11
I426
F0.0
F30.117308
tp3844
a(S'Solve_Succeeded'
p3845
I136
F3.9441457749138467
F9.411115
tp3846
a(S'Solve_Succeeded'
p3847
I107
F4.172595474052572
F6.055129
tp3848
a(S'Solve_Succeeded'
p3849
I273
F3.943736939973298
F16.572913
tp3850
a(S'Solve_Succeeded'
p3851
I246
F4.071121491687779
F16.75452
tp3852
a(g11
I415
F0.0
F30.063097
tp3853
a(S'Solve_Succeeded'
p3854
I41
F3.938397563547295
F2.263882
tp3855
a(S'Solve_Succeeded'
p3856
I146
F3.956494352807452
F10.376316
tp3857
a(S'Solve_Succeeded'
p3858
I49
F3.9853539435342613
F2.812731
tp3859
a(S'Solve_Succeeded'
p3860
I63
F4.059641866044397
F3.7676
tp3861
a(S'Solve_Succeeded'
p3862
I54
F3.9816393066843276
F3.441565
tp3863
a(S'Solve_Succeeded'
p3864
I47
F3.990035143249908
F2.656933
tp3865
a(S'Solve_Succeeded'
p3866
I66
F4.139900936617001
F4.016213
tp3867
a(S'Solve_Succeeded'
p3868
I81
F3.930490316302537
F4.762727
tp3869
a(S'Solve_Succeeded'
p3870
I91
F3.9763334238756842
F5.946608
tp3871
a(S'Solve_Succeeded'
p3872
I81
F4.114005425569806
F6.035008
tp3873
a(S'Solve_Succeeded'
p3874
I48
F3.9026448536848233
F2.64156
tp3875
a(S'Solve_Succeeded'
p3876
I60
F3.964891644171251
F2.866184
tp3877
a(g11
I393
F0.0
F30.088165
tp3878
a(g11
I489
F0.0
F30.133084
tp3879
a(S'Infeasible_Problem_Detected'
p3880
I211
F4.179574136595173
F18.385793
tp3881
a(S'Solve_Succeeded'
p3882
I68
F4.098580785303247
F3.618578
tp3883
a(g11
I426
F0.0
F30.106431
tp3884
a(S'Solve_Succeeded'
p3885
I71
F3.9497076844028225
F3.609424
tp3886
a(S'Solve_Succeeded'
p3887
I83
F4.127796510546114
F5.974576
tp3888
a(g11
I420
F0.0
F30.094492
tp3889
a(S'Solve_Succeeded'
p3890
I120
F4.048504199860028
F6.650607
tp3891
a(S'Solve_Succeeded'
p3892
I159
F4.057172538715896
F9.570917
tp3893
a(S'Solve_Succeeded'
p3894
I87
F3.973117245790098
F4.926428
tp3895
a(S'Solve_Succeeded'
p3896
I42
F3.973901283130679
F2.550652
tp3897
a(S'Solve_Succeeded'
p3898
I47
F4.1072341130814785
F2.658229
tp3899
a(S'Solve_Succeeded'
p3900
I44
F4.00182388719753
F2.209581
tp3901
a(g11
I464
F0.0
F30.148313
tp3902
a(S'Solve_Succeeded'
p3903
I45
F4.095304084682696
F2.833016
tp3904
a(S'Infeasible_Problem_Detected'
p3905
I124
F4.0399505587272095
F26.027053
tp3906
a(S'Solve_Succeeded'
p3907
I165
F3.9818483144882766
F13.124971
tp3908
a(S'Solve_Succeeded'
p3909
I76
F3.939679722957307
F4.918324
tp3910
a(S'Solve_Succeeded'
p3911
I85
F4.086511569296925
F4.469458
tp3912
a(g11
I476
F0.0
F30.104127
tp3913
a(S'Solve_Succeeded'
p3914
I295
F4.212491856569233
F17.550571
tp3915
a(S'Solve_Succeeded'
p3916
I83
F4.083826624204516
F9.343708
tp3917
a(g11
I372
F0.0
F30.156932
tp3918
a(S'Solve_Succeeded'
p3919
I94
F3.9875435097792096
F5.7234
tp3920
a(S'Solve_Succeeded'
p3921
I45
F3.9944510622590412
F2.340748
tp3922
a(S'Solve_Succeeded'
p3923
I263
F4.002571267501506
F19.977707
tp3924
a(g11
I478
F0.0
F30.125899
tp3925
a(S'Solve_Succeeded'
p3926
I130
F3.895861497981419
F7.525421
tp3927
a(S'Solve_Succeeded'
p3928
I84
F4.086235246336304
F5.31783
tp3929
a(S'Solve_Succeeded'
p3930
I91
F4.020803212076828
F5.354084
tp3931
a(S'Solve_Succeeded'
p3932
I49
F4.021241875884877
F3.406518
tp3933
a(S'Solve_Succeeded'
p3934
I78
F3.9625594166861
F5.887721
tp3935
a(S'Solve_Succeeded'
p3936
I118
F4.105420576024555
F7.076836
tp3937
a(S'Solve_Succeeded'
p3938
I40
F3.9477024144430404
F2.044835
tp3939
a(S'Solve_Succeeded'
p3940
I233
F3.9578208022714785
F16.319816
tp3941
a(g11
I491
F0.0
F30.133019
tp3942
a(g11
I472
F0.0
F30.121798
tp3943
a(g11
I446
F0.0
F30.11548
tp3944
a(S'Solve_Succeeded'
p3945
I60
F4.020167516540126
F3.69652
tp3946
a(g11
I431
F0.0
F30.140327
tp3947
a(S'Solve_Succeeded'
p3948
I91
F4.010893444731171
F5.329084
tp3949
a(S'Solve_Succeeded'
p3950
I98
F4.001012624442848
F5.009997
tp3951
a(S'Solve_Succeeded'
p3952
I121
F4.149054316362103
F7.45004
tp3953
a(S'Solve_Succeeded'
p3954
I325
F4.170678286370369
F23.258402
tp3955
a(g11
I446
F0.0
F30.166839
tp3956
a(S'Solve_Succeeded'
p3957
I151
F4.069615392331789
F8.724894
tp3958
a(S'Solve_Succeeded'
p3959
I61
F3.96401982912949
F2.906775
tp3960
a(S'Solve_Succeeded'
p3961
I115
F4.018769105937668
F6.181464
tp3962
a(S'Solve_Succeeded'
p3963
I57
F4.087076641201787
F3.260379
tp3964
a(S'Solve_Succeeded'
p3965
I40
F3.9328576587809474
F2.103966
tp3966
a(S'Solve_Succeeded'
p3967
I79
F4.0490863181650605
F4.321955
tp3968
a(S'Solve_Succeeded'
p3969
I84
F4.1110348105755605
F4.691349
tp3970
a(S'Solve_Succeeded'
p3971
I51
F3.949294897912118
F2.798648
tp3972
a(g11
I404
F0.0
F30.07365
tp3973
a(S'Solve_Succeeded'
p3974
I171
F3.9367798395780103
F11.072423
tp3975
a(g11
I406
F0.0
F30.167705
tp3976
a(S'Solve_Succeeded'
p3977
I123
F3.950497469642069
F7.543658
tp3978
a(S'Solve_Succeeded'
p3979
I52
F4.139670261263947
F2.847154
tp3980
a(S'Solve_Succeeded'
p3981
I238
F3.921826538822087
F15.653209
tp3982
a(S'Solve_Succeeded'
p3983
I54
F3.932622246184989
F2.511801
tp3984
a(S'Solve_Succeeded'
p3985
I53
F4.080219100339671
F3.250249
tp3986
a(g11
I431
F0.0
F30.132392
tp3987
a(S'Solve_Succeeded'
p3988
I65
F4.058463619231674
F3.429136
tp3989
a(S'Solve_Succeeded'
p3990
I34
F3.958134049334331
F2.053482
tp3991
a(S'Solve_Succeeded'
p3992
I52
F4.090376926710157
F2.77429
tp3993
a(S'Infeasible_Problem_Detected'
p3994
I20
F4.028963657504032
F20.042666
tp3995
a(g11
I228
F0.0
F30.119427
tp3996
a(S'Solve_Succeeded'
p3997
I64
F4.024495365291212
F3.874891
tp3998
a(S'Solve_Succeeded'
p3999
I99
F4.04849432077505
F4.772663
tp4000
a(S'Solve_Succeeded'
p4001
I34
F3.9627809222734633
F1.832118
tp4002
a(S'Solve_Succeeded'
p4003
I69
F4.064285394837141
F4.070971
tp4004
a(g11
I434
F0.0
F30.110014
tp4005
a(S'Solve_Succeeded'
p4006
I58
F4.069552525005379
F2.894241
tp4007
a(S'Solve_Succeeded'
p4008
I116
F3.9862517110058904
F7.21537
tp4009
a(g11
I465
F0.0
F30.117019
tp4010
a(g11
I381
F0.0
F30.177608
tp4011
a(S'Solve_Succeeded'
p4012
I59
F3.9946867974459517
F3.502133
tp4013
a(S'Solve_Succeeded'
p4014
I40
F4.034105005846603
F2.365748
tp4015
a(S'Solve_Succeeded'
p4016
I56
F3.9275698186140873
F2.628683
tp4017
a(S'Solve_Succeeded'
p4018
I51
F4.015275131376055
F2.738097
tp4019
a(S'Solve_Succeeded'
p4020
I51
F4.133866834878875
F2.496733
tp4021
a(S'Solve_Succeeded'
p4022
I50
F3.9556167782571983
F2.771256
tp4023
a(S'Solve_Succeeded'
p4024
I320
F3.9742349966031405
F26.079332
tp4025
a(S'Solve_Succeeded'
p4026
I93
F4.106718577951403
F4.621529
tp4027
a(S'Solve_Succeeded'
p4028
I108
F3.959869221186249
F6.946665
tp4029
a(S'Solve_Succeeded'
p4030
I158
F4.2133010899623775
F9.969589
tp4031
a(g11
I401
F0.0
F30.191317
tp4032
a(S'Solve_Succeeded'
p4033
I45
F3.945853788707812
F2.726352
tp4034
a(S'Solve_Succeeded'
p4035
I250
F4.047019660310692
F15.103402
tp4036
a(S'Solve_Succeeded'
p4037
I47
F4.0558932161967975
F3.791882
tp4038
a(S'Solve_Succeeded'
p4039
I86
F3.9609629547441068
F4.967374
tp4040
a(S'Solve_Succeeded'
p4041
I197
F4.070407605566612
F12.591773
tp4042
a(S'Solve_Succeeded'
p4043
I91
F3.8963930309497363
F6.023852
tp4044
a(S'Solve_Succeeded'
p4045
I70
F4.028964305392376
F3.657092
tp4046
a(S'Solve_Succeeded'
p4047
I132
F4.041054921136257
F7.306451
tp4048
a(g11
I431
F0.0
F30.09563
tp4049
a(g11
I324
F0.0
F30.138431
tp4050
a(S'Solve_Succeeded'
p4051
I53
F4.015060926293916
F3.560835
tp4052
a(S'Solve_Succeeded'
p4053
I53
F3.9356606208019036
F2.723773
tp4054
a(S'Solve_Succeeded'
p4055
I64
F3.972835347478124
F4.003671
tp4056
a(S'Solve_Succeeded'
p4057
I62
F4.1043734391715025
F3.540931
tp4058
a(S'Solve_Succeeded'
p4059
I90
F3.941496249223247
F5.148388
tp4060
a(g11
I484
F0.0
F30.161352
tp4061
a(S'Solve_Succeeded'
p4062
I38
F4.048563902760007
F2.093635
tp4063
a(g11
I385
F0.0
F30.137006
tp4064
a(S'Solve_Succeeded'
p4065
I28
F3.930308582735238
F1.558643
tp4066
a(S'Solve_Succeeded'
p4067
I43
F3.9345153015622985
F2.261151
tp4068
a(S'Solve_Succeeded'
p4069
I54
F4.059005312993014
F2.783967
tp4070
a(S'Solve_Succeeded'
p4071
I87
F4.029585264241632
F5.307852
tp4072
a(S'Solve_Succeeded'
p4073
I31
F3.944917595456818
F1.684101
tp4074
a(S'Solve_Succeeded'
p4075
I210
F4.0394062788822245
F14.163921
tp4076
a(S'Solve_Succeeded'
p4077
I90
F3.9478026399820063
F4.833364
tp4078
a(S'Solve_Succeeded'
p4079
I65
F4.120391329973524
F3.797417
tp4080
a(S'Solve_Succeeded'
p4081
I46
F4.010685596110575
F2.483505
tp4082
a(S'Solve_Succeeded'
p4083
I35
F3.9454515212952104
F2.128675
tp4084
a(S'Solve_Succeeded'
p4085
I189
F4.17467777966841
F10.136523
tp4086
a(g11
I388
F0.0
F30.0958
tp4087
a(g11
I437
F0.0
F30.105356
tp4088
a(S'Solve_Succeeded'
p4089
I53
F4.041264939660489
F2.396406
tp4090
a(g11
I399
F0.0
F30.135229
tp4091
a(S'Solve_Succeeded'
p4092
I156
F3.935474086876891
F8.544152
tp4093
a(S'Solve_Succeeded'
p4094
I117
F3.9368710497963817
F8.019746
tp4095
a(g11
I330
F0.0
F30.12672
tp4096
a(S'Solve_Succeeded'
p4097
I45
F4.086622170052309
F2.597831
tp4098
a(g11
I421
F0.0
F30.135405
tp4099
a(S'Solve_Succeeded'
p4100
I97
F4.050077081585277
F5.819689
tp4101
a(S'Infeasible_Problem_Detected'
p4102
I342
F3.962365955982902
F29.390364
tp4103
a(S'Solve_Succeeded'
p4104
I81
F4.022944665861552
F4.023586
tp4105
a(S'Solve_Succeeded'
p4106
I131
F4.1697225823646304
F9.21244
tp4107
a(S'Solve_Succeeded'
p4108
I92
F4.114648069481039
F6.178803
tp4109
a(g11
I395
F0.0
F30.118653
tp4110
a(S'Solve_Succeeded'
p4111
I43
F3.943610806520813
F2.307617
tp4112
a(S'Solve_Succeeded'
p4113
I56
F4.034961630101595
F3.290601
tp4114
a(S'Solve_Succeeded'
p4115
I106
F4.173486950244367
F6.090982
tp4116
a(g11
I484
F0.0
F30.100912
tp4117
a(g11
I362
F0.0
F30.106078
tp4118
a(S'Solve_Succeeded'
p4119
I88
F3.9349031464740105
F5.626039
tp4120
a(S'Solve_Succeeded'
p4121
I72
F3.972318479969776
F4.069024
tp4122
a(S'Solve_Succeeded'
p4123
I40
F3.912806102888729
F2.134475
tp4124
a(S'Solve_Succeeded'
p4125
I64
F3.9717805960776826
F5.756454
tp4126
a(S'Solve_Succeeded'
p4127
I31
F3.9347369805585517
F1.668445
tp4128
a(S'Solve_Succeeded'
p4129
I53
F4.0025956831213145
F3.130671
tp4130
a(S'Solve_Succeeded'
p4131
I57
F4.025829395572193
F3.888308
tp4132
a(S'Solve_Succeeded'
p4133
I84
F4.03479170222668
F5.124785
tp4134
a(S'Infeasible_Problem_Detected'
p4135
I284
F4.227638572052346
F24.321779
tp4136
a(S'Solve_Succeeded'
p4137
I351
F4.002585317763854
F26.322032
tp4138
a(S'Solve_Succeeded'
p4139
I54
F3.971930736551154
F2.736806
tp4140
a(S'Solve_Succeeded'
p4141
I68
F3.983849517430138
F3.352903
tp4142
a(S'Solve_Succeeded'
p4143
I121
F3.971344980942149
F6.59764
tp4144
a(S'Solve_Succeeded'
p4145
I110
F3.916984106763658
F7.102579
tp4146
a(g11
I407
F0.0
F30.133444
tp4147
a(g11
I325
F0.0
F30.088447
tp4148
a(S'Solve_Succeeded'
p4149
I160
F4.004938899177364
F9.066861
tp4150
a(S'Solve_Succeeded'
p4151
I127
F4.029769381820971
F8.110227
tp4152
a(S'Solve_Succeeded'
p4153
I106
F3.9449444756042045
F6.892933
tp4154
a(S'Solve_Succeeded'
p4155
I57
F4.1071308537468925
F3.092962
tp4156
a(S'Solve_Succeeded'
p4157
I133
F4.104529678305874
F7.713749
tp4158
a(S'Solve_Succeeded'
p4159
I270
F3.9724793018597695
F16.375454
tp4160
a(S'Solve_Succeeded'
p4161
I39
F3.927744745988331
F2.301143
tp4162
a(S'Solve_Succeeded'
p4163
I41
F4.035651085618774
F2.365976
tp4164
a(g11
I433
F0.0
F30.076887
tp4165
a(S'Solve_Succeeded'
p4166
I55
F4.086115041520703
F3.002016
tp4167
a(S'Solve_Succeeded'
p4168
I67
F4.017047724188521
F4.686426
tp4169
a(S'Solve_Succeeded'
p4170
I84
F4.07912530292899
F5.243677
tp4171
a(g11
I372
F0.0
F30.11163
tp4172
a(S'Solve_Succeeded'
p4173
I98
F4.0135578139083075
F5.760596
tp4174
a(S'Solve_Succeeded'
p4175
I380
F4.008389408802653
F26.466815
tp4176
a(S'Solve_Succeeded'
p4177
I45
F3.9369002385618415
F2.693612
tp4178
a(S'Solve_Succeeded'
p4179
I280
F4.091331315539426
F19.571999
tp4180
a(S'Solve_Succeeded'
p4181
I43
F4.039804387229901
F2.16435
tp4182
a(S'Solve_Succeeded'
p4183
I94
F3.949025516039038
F5.342205
tp4184
a(S'Solve_Succeeded'
p4185
I82
F3.9416749985618234
F3.979263
tp4186
a(S'Solve_Succeeded'
p4187
I133
F3.9932038955989233
F8.586283
tp4188
a(S'Infeasible_Problem_Detected'
p4189
I236
F4.188799586185475
F24.203867
tp4190
a(g11
I427
F0.0
F30.126934
tp4191
a(S'Solve_Succeeded'
p4192
I37
F3.9780368916462927
F2.197557
tp4193
a(S'Solve_Succeeded'
p4194
I50
F4.080325061094537
F3.134293
tp4195
a(g11
I448
F0.0
F30.161333
tp4196
a(S'Solve_Succeeded'
p4197
I363
F4.166548585605267
F22.039121
tp4198
a(S'Solve_Succeeded'
p4199
I96
F3.891153599368063
F4.987677
tp4200
a(S'Solve_Succeeded'
p4201
I120
F4.12288015287837
F6.50245
tp4202
a(g11
I462
F0.0
F30.203814
tp4203
a(S'Solve_Succeeded'
p4204
I87
F4.035960561430943
F4.323237
tp4205
a(S'Solve_Succeeded'
p4206
I73
F4.015989434768536
F4.083998
tp4207
a(S'Solve_Succeeded'
p4208
I65
F4.139911364925717
F3.657523
tp4209
a(S'Solve_Succeeded'
p4210
I50
F3.9663665954566443
F2.813571
tp4211
a(g11
I428
F0.0
F30.127795
tp4212
a(g11
I547
F0.0
F30.220188
tp4213
a(S'Solve_Succeeded'
p4214
I163
F4.056612882012013
F12.245934
tp4215
a(S'Solve_Succeeded'
p4216
I62
F3.9355718543864895
F3.68544
tp4217
a(S'Solve_Succeeded'
p4218
I44
F4.043625183282809
F2.021427
tp4219
a(g11
I443
F0.0
F30.11425
tp4220
a(S'Solve_Succeeded'
p4221
I41
F3.923471159685785
F2.085437
tp4222
a(S'Solve_Succeeded'
p4223
I54
F3.9475577301708076
F2.792267
tp4224
a(S'Solve_Succeeded'
p4225
I78
F3.916608530671846
F4.633176
tp4226
a(S'Solve_Succeeded'
p4227
I50
F3.9203939585099015
F4.145841
tp4228
a(g11
I393
F0.0
F30.168372
tp4229
a(S'Solve_Succeeded'
p4230
I133
F4.157462595575159
F8.751911
tp4231
a(g11
I381
F0.0
F30.126734
tp4232
a(S'Solve_Succeeded'
p4233
I254
F4.039975923842145
F15.935445
tp4234
a(g11
I438
F0.0
F30.159035
tp4235
a(S'Solve_Succeeded'
p4236
I65
F3.9206169868591663
F4.006386
tp4237
a(S'Solve_Succeeded'
p4238
I55
F4.049259832771187
F2.725239
tp4239
a(S'Solve_Succeeded'
p4240
I188
F4.051834316090947
F11.87171
tp4241
a(S'Solve_Succeeded'
p4242
I264
F4.093407202238246
F17.651486
tp4243
a(S'Solve_Succeeded'
p4244
I131
F4.059718785271607
F6.91878
tp4245
a(S'Solve_Succeeded'
p4246
I106
F3.9835842500247076
F5.811516
tp4247
a(S'Solve_Succeeded'
p4248
I108
F4.0011412162384525
F6.727295
tp4249
a(S'Solve_Succeeded'
p4250
I104
F3.945664097229279
F7.380707
tp4251
a(g11
I178
F0.0
F30.176671
tp4252
a(S'Solve_Succeeded'
p4253
I236
F4.1883937839871805
F13.465834
tp4254
a(S'Solve_Succeeded'
p4255
I40
F3.9832531319686053
F2.35639
tp4256
a(g11
I429
F0.0
F30.105313
tp4257
a(S'Solve_Succeeded'
p4258
I104
F4.117994728159987
F5.835894
tp4259
a(g11
I360
F4.285558614896223
F30.143313
tp4260
a(S'Solve_Succeeded'
p4261
I120
F4.0562047256607965
F7.166609
tp4262
a(S'Solve_Succeeded'
p4263
I60
F3.984517839874698
F4.179562
tp4264
a(S'Solve_Succeeded'
p4265
I119
F4.135507161723929
F7.150341
tp4266
a(S'Solve_Succeeded'
p4267
I267
F4.0207326477104814
F17.74356
tp4268
a(S'Solve_Succeeded'
p4269
I71
F3.9654106359542536
F4.013769
tp4270
a(S'Solve_Succeeded'
p4271
I97
F4.0438901556809155
F6.290546
tp4272
a(S'Solve_Succeeded'
p4273
I50
F3.9436731861547947
F2.935612
tp4274
a(S'Solve_Succeeded'
p4275
I197
F4.062343190463132
F10.784596
tp4276
a(g11
I422
F0.0
F30.124026
tp4277
a(S'Solve_Succeeded'
p4278
I222
F4.010783413850463
F14.979559
tp4279
a(S'Solve_Succeeded'
p4280
I150
F4.062958265199431
F9.457752
tp4281
a(S'Solve_Succeeded'
p4282
I181
F3.938058822738613
F9.630482
tp4283
a(S'Solve_Succeeded'
p4284
I107
F4.118979833376734
F5.009116
tp4285
a(S'Solve_Succeeded'
p4286
I100
F4.076042292065836
F5.32046
tp4287
a(S'Solve_Succeeded'
p4288
I109
F4.045876280921538
F5.277196
tp4289
a(g11
I462
F0.0
F30.16403
tp4290
a(S'Solve_Succeeded'
p4291
I227
F3.902757611818347
F17.906478
tp4292
a(S'Solve_Succeeded'
p4293
I96
F3.9575919442307383
F5.73346
tp4294
a(S'Solve_Succeeded'
p4295
I381
F4.036706313491734
F26.711175
tp4296
a(g11
I416
F0.0
F30.134474
tp4297
a(S'Solve_Succeeded'
p4298
I65
F4.061998389029397
F4.330157
tp4299
a(S'Solve_Succeeded'
p4300
I126
F3.944761324603381
F7.807359
tp4301
a(S'Solve_Succeeded'
p4302
I152
F3.914935112410965
F10.438105
tp4303
a(S'Solve_Succeeded'
p4304
I387
F4.033685498957317
F27.025531
tp4305
a(S'Solve_Succeeded'
p4306
I116
F3.9872712139979782
F7.012879
tp4307
a(S'Solve_Succeeded'
p4308
I140
F4.066689392141575
F6.532205
tp4309
a(g11
I442
F0.0
F30.129529
tp4310
a(S'Solve_Succeeded'
p4311
I58
F3.957442295153451
F3.670764
tp4312
a(S'Solve_Succeeded'
p4313
I129
F3.984407599314134
F9.222016
tp4314
a(g11
I373
F0.0
F30.199586
tp4315
a(S'Solve_Succeeded'
p4316
I82
F4.191652866937026
F5.4878
tp4317
a(g11
I437
F0.0
F30.095934
tp4318
a(S'Solve_Succeeded'
p4319
I199
F3.9110804416937763
F13.812183
tp4320
a(S'Solve_Succeeded'
p4321
I65
F4.0391424302171925
F3.842013
tp4322
a(S'Solve_Succeeded'
p4323
I32
F4.016242620584038
F1.575382
tp4324
a(S'Solve_Succeeded'
p4325
I44
F4.121998828098873
F2.405008
tp4326
a(g11
I378
F0.0
F30.19808
tp4327
a(S'Solve_Succeeded'
p4328
I55
F3.944770400803476
F3.354027
tp4329
a(g11
I442
F0.0
F30.203622
tp4330
a(S'Solve_Succeeded'
p4331
I188
F3.985614023201759
F14.799742
tp4332
a(S'Solve_Succeeded'
p4333
I195
F4.102516425533025
F11.186925
tp4334
a(S'Solve_Succeeded'
p4335
I50
F3.9260685729657974
F2.459358
tp4336
a(S'Solve_Succeeded'
p4337
I174
F4.133024106863868
F14.006195
tp4338
a(S'Solve_Succeeded'
p4339
I89
F4.0721483512825145
F5.047333
tp4340
a(g11
I443
F0.0
F30.129984
tp4341
a(S'Solve_Succeeded'
p4342
I72
F3.893255949823633
F4.2844
tp4343
a(g11
I440
F0.0
F30.103788
tp4344
a(S'Solve_Succeeded'
p4345
I58
F4.071213864732958
F2.862866
tp4346
a(S'Solve_Succeeded'
p4347
I284
F4.073705351044426
F18.2162
tp4348
a(S'Solve_Succeeded'
p4349
I70
F4.0447407105812925
F3.766876
tp4350
a(g11
I392
F0.0
F30.111183
tp4351
a(g11
I419
F0.0
F30.190955
tp4352
a(g11
I471
F0.0
F30.143923
tp4353
a(S'Solve_Succeeded'
p4354
I54
F3.917379947803818
F4.355578
tp4355
a(g11
I418
F0.0
F30.154575
tp4356
a(g11
I343
F0.0
F30.081185
tp4357
a(S'Solve_Succeeded'
p4358
I30
F4.038881096874488
F1.48135
tp4359
a(g11
I414
F0.0
F30.10935
tp4360
a(S'Solve_Succeeded'
p4361
I25
F3.939742919709908
F1.29527
tp4362
a(S'Solve_Succeeded'
p4363
I375
F3.9272054784228376
F24.597409
tp4364
a(S'Solve_Succeeded'
p4365
I62
F4.036239548006
F3.200334
tp4366
a(S'Solve_Succeeded'
p4367
I40
F4.029436904427506
F2.053078
tp4368
a(S'Solve_Succeeded'
p4369
I85
F3.9554544990773244
F4.669769
tp4370
a(S'Solve_Succeeded'
p4371
I340
F4.239294414790967
F28.086515
tp4372
a(S'Solve_Succeeded'
p4373
I62
F3.973963261323699
F3.524304
tp4374
a(g11
I477
F0.0
F30.125541
tp4375
a(S'Solve_Succeeded'
p4376
I53
F3.9889663849383346
F2.951114
tp4377
a(S'Solve_Succeeded'
p4378
I61
F3.985918613361825
F6.77567
tp4379
a(S'Solve_Succeeded'
p4380
I70
F4.054291927050301
F3.97652
tp4381
a(S'Solve_Succeeded'
p4382
I126
F4.009801442063661
F7.330439
tp4383
a(S'Solve_Succeeded'
p4384
I41
F4.080487313862458
F2.255054
tp4385
a(S'Solve_Succeeded'
p4386
I148
F4.130443098952971
F10.443838
tp4387
a(S'Solve_Succeeded'
p4388
I42
F3.935000703774112
F2.068948
tp4389
a(g11
I258
F0.0
F30.129269
tp4390
a(S'Solve_Succeeded'
p4391
I44
F3.9945036881180536
F2.493128
tp4392
a(S'Solve_Succeeded'
p4393
I48
F3.994986072171968
F2.295939
tp4394
a(S'Solve_Succeeded'
p4395
I53
F4.001103837402546
F3.722749
tp4396
a(S'Solve_Succeeded'
p4397
I69
F4.112260202966807
F3.333452
tp4398
a(S'Solve_Succeeded'
p4399
I33
F3.9538945457079033
F1.762016
tp4400
a(g11
I439
F0.0
F30.123637
tp4401
a(S'Solve_Succeeded'
p4402
I73
F4.0137680111283585
F3.935632
tp4403
a(S'Solve_Succeeded'
p4404
I54
F3.9346753044355354
F4.088584
tp4405
a(g11
I205
F0.0
F30.154045
tp4406
a(S'Solve_Succeeded'
p4407
I76
F3.9615865937445993
F5.561051
tp4408
a(S'Solve_Succeeded'
p4409
I105
F3.9507412483614703
F6.673337
tp4410
a(S'Solve_Succeeded'
p4411
I101
F3.9345767117327326
F6.700317
tp4412
a(S'Infeasible_Problem_Detected'
p4413
I364
F4.174954732254272
F26.316894
tp4414
a(S'Solve_Succeeded'
p4415
I101
F4.176796655642373
F7.119004
tp4416
a(S'Solve_Succeeded'
p4417
I143
F4.0942231413894605
F9.151394
tp4418
a(S'Solve_Succeeded'
p4419
I47
F4.001412618924385
F2.35609
tp4420
a(S'Solve_Succeeded'
p4421
I424
F3.937922959402578
F29.813535
tp4422
a(S'Solve_Succeeded'
p4423
I93
F4.177043945560704
F6.636642
tp4424
a(S'Solve_Succeeded'
p4425
I177
F4.08416867896469
F10.141526
tp4426
a(S'Solve_Succeeded'
p4427
I118
F3.9653291986153665
F8.09494
tp4428
a(S'Solve_Succeeded'
p4429
I53
F3.998957391856327
F2.769725
tp4430
a(S'Solve_Succeeded'
p4431
I184
F3.964333340912184
F11.46616
tp4432
a(S'Solve_Succeeded'
p4433
I272
F3.957580740374856
F16.20855
tp4434
a(S'Solve_Succeeded'
p4435
I96
F4.024975120412904
F5.753699
tp4436
a(g11
I402
F0.0
F30.225558
tp4437
a(S'Infeasible_Problem_Detected'
p4438
I241
F4.050567668913887
F20.378233
tp4439
a(S'Solve_Succeeded'
p4440
I90
F4.073717478288176
F7.653367
tp4441
a(S'Solve_Succeeded'
p4442
I131
F3.907589730137706
F8.49409
tp4443
a(S'Solve_Succeeded'
p4444
I81
F4.131857095347686
F4.780475
tp4445
a(g11
I413
F0.0
F30.141023
tp4446
a(g11
I325
F0.0
F30.118143
tp4447
a(S'Solve_Succeeded'
p4448
I123
F4.117530380346654
F7.369627
tp4449
a(S'Solve_Succeeded'
p4450
I59
F3.9684371017562876
F3.390416
tp4451
a(S'Solve_Succeeded'
p4452
I114
F4.047986953823725
F6.618837
tp4453
a(S'Solve_Succeeded'
p4454
I82
F3.9465705309161967
F5.847956
tp4455
a(S'Solve_Succeeded'
p4456
I115
F3.9428662053543237
F6.844905
tp4457
a(S'Solve_Succeeded'
p4458
I113
F4.009096858977969
F5.924581
tp4459
a(S'Solve_Succeeded'
p4460
I483
F3.9111066009801996
F28.032821
tp4461
a(S'Solve_Succeeded'
p4462
I184
F4.023387759339694
F7.947714
tp4463
a(S'Solve_Succeeded'
p4464
I273
F4.0874792785225
F18.507729
tp4465
a(S'Solve_Succeeded'
p4466
I132
F3.9385791067532443
F8.156481
tp4467
a(S'Solve_Succeeded'
p4468
I71
F3.946875542867411
F4.598592
tp4469
a(S'Solve_Succeeded'
p4470
I64
F4.054495504249541
F3.537564
tp4471
a(g11
I399
F0.0
F30.153169
tp4472
a(S'Solve_Succeeded'
p4473
I58
F3.968438968481512
F2.989214
tp4474
a(S'Solve_Succeeded'
p4475
I68
F3.925063427150556
F5.132949
tp4476
a(S'Solve_Succeeded'
p4477
I286
F4.067277749400743
F18.983742
tp4478
a(g11
I416
F0.0
F30.217054
tp4479
a(S'Solve_Succeeded'
p4480
I166
F4.084521762175982
F10.03251
tp4481
a(g11
I449
F0.0
F30.095123
tp4482
a(g11
I408
F0.0
F30.156541
tp4483
a(S'Solve_Succeeded'
p4484
I65
F3.893647682392053
F4.178541
tp4485
a(g11
I400
F0.0
F30.129716
tp4486
a(S'Solve_Succeeded'
p4487
I38
F4.007923210591875
F2.096076
tp4488
a(S'Solve_Succeeded'
p4489
I51
F3.9768590090079026
F2.956208
tp4490
a(S'Solve_Succeeded'
p4491
I52
F4.087993765455507
F2.594953
tp4492
a(S'Solve_Succeeded'
p4493
I112
F4.070964757851447
F6.775881
tp4494
a(g11
I400
F0.0
F30.078536
tp4495
a(S'Solve_Succeeded'
p4496
I59
F3.9368626241200437
F3.663164
tp4497
a(S'Solve_Succeeded'
p4498
I79
F4.084447939339037
F6.351707
tp4499
a(g11
I484
F0.0
F30.155202
tp4500
a(S'Solve_Succeeded'
p4501
I44
F3.941071288343954
F2.256098
tp4502
a(g11
I433
F0.0
F30.185083
tp4503
a(g11
I425
F0.0
F30.104352
tp4504
a(g11
I384
F0.0
F30.143782
tp4505
a(S'Solve_Succeeded'
p4506
I78
F4.107728801538468
F4.097981
tp4507
a(S'Solve_Succeeded'
p4508
I88
F4.076431005629961
F5.712543
tp4509
a(S'Solve_Succeeded'
p4510
I38
F3.9236308188002735
F1.917936
tp4511
a(S'Solve_Succeeded'
p4512
I69
F3.9932602579300798
F4.723234
tp4513
a(S'Solve_Succeeded'
p4514
I200
F4.030353600466142
F12.215667
tp4515
a(S'Solve_Succeeded'
p4516
I84
F3.9257769799276785
F5.475146
tp4517
a(S'Solve_Succeeded'
p4518
I117
F4.060605878808181
F5.934966
tp4519
a(S'Solve_Succeeded'
p4520
I110
F4.13987511434837
F5.859997
tp4521
a(S'Solve_Succeeded'
p4522
I297
F4.120225022643301
F18.502096
tp4523
a(g11
I477
F0.0
F30.117618
tp4524
a(S'Solve_Succeeded'
p4525
I67
F3.9618527457924126
F3.837861
tp4526
a(S'Solve_Succeeded'
p4527
I72
F4.064387916580335
F4.119482
tp4528
a(g11
I444
F0.0
F30.119865
tp4529
a(S'Solve_Succeeded'
p4530
I180
F3.9179173460622234
F10.092387
tp4531
a(S'Solve_Succeeded'
p4532
I95
F4.032049666988486
F4.924358
tp4533
a(S'Solve_Succeeded'
p4534
I189
F4.061554672559901
F13.330424
tp4535
a(S'Solve_Succeeded'
p4536
I49
F4.017718244609855
F2.607808
tp4537
a(S'Solve_Succeeded'
p4538
I260
F3.994819532570283
F16.215143
tp4539
a(S'Solve_Succeeded'
p4540
I61
F3.9608767773296445
F3.656067
tp4541
a(g11
I402
F0.0
F30.166047
tp4542
a(S'Solve_Succeeded'
p4543
I86
F4.035980800646042
F5.100188
tp4544
a(S'Solve_Succeeded'
p4545
I55
F4.007013548448795
F2.773158
tp4546
a(S'Solve_Succeeded'
p4547
I226
F4.110161599649206
F14.755544
tp4548
a(g11
I392
F0.0
F30.171446
tp4549
a(S'Solve_Succeeded'
p4550
I50
F4.08175310004932
F2.648003
tp4551
a(S'Solve_Succeeded'
p4552
I307
F3.9684145890156097
F21.232289
tp4553
a(S'Solve_Succeeded'
p4554
I74
F3.9932390952466283
F4.21692
tp4555
a(S'Solve_Succeeded'
p4556
I41
F4.092375820939198
F2.334752
tp4557
a(S'Solve_Succeeded'
p4558
I44
F4.037874894308846
F2.301182
tp4559
a(S'Solve_Succeeded'
p4560
I36
F4.014301553196994
F1.95844
tp4561
a(S'Solve_Succeeded'
p4562
I79
F3.9360807434109764
F4.727646
tp4563
a(S'Solve_Succeeded'
p4564
I49
F3.9800809257402374
F2.505104
tp4565
a(S'Solve_Succeeded'
p4566
I63
F3.937076419759147
F3.409045
tp4567
a(g11
I437
F0.0
F30.150493
tp4568
a(S'Solve_Succeeded'
p4569
I76
F3.996358931640935
F4.781294
tp4570
a(S'Solve_Succeeded'
p4571
I350
F4.001140648490809
F18.890196
tp4572
a(g11
I524
F0.0
F30.137536
tp4573
a(S'Solve_Succeeded'
p4574
I50
F4.013631652403947
F2.815526
tp4575
a(S'Solve_Succeeded'
p4576
I165
F4.051740008579252
F10.833008
tp4577
a(S'Solve_Succeeded'
p4578
I72
F4.086548886270075
F4.182734
tp4579
a(S'Solve_Succeeded'
p4580
I54
F4.205044794844344
F3.807449
tp4581
a(S'Solve_Succeeded'
p4582
I100
F4.1679122992090845
F5.204872
tp4583
a(S'Solve_Succeeded'
p4584
I55
F4.054607416281431
F2.890862
tp4585
a(S'Solve_Succeeded'
p4586
I44
F4.004062848856739
F2.520155
tp4587
a(S'Solve_Succeeded'
p4588
I122
F4.0429224597079685
F7.366736
tp4589
a(S'Solve_Succeeded'
p4590
I63
F3.9390196569331315
F4.027546
tp4591
a(S'Solve_Succeeded'
p4592
I150
F3.9481575887274407
F8.567847
tp4593
a(S'Solve_Succeeded'
p4594
I36
F3.941537514074307
F1.95307
tp4595
a(S'Solve_Succeeded'
p4596
I34
F4.0241616269922575
F1.896852
tp4597
a(S'Solve_Succeeded'
p4598
I42
F3.9455154387656677
F2.572846
tp4599
a(g11
I452
F0.0
F30.125211
tp4600
a(g11
I424
F0.0
F30.16553
tp4601
a(S'Infeasible_Problem_Detected'
p4602
I282
F4.3294557005593965
F27.287405
tp4603
a(g11
I521
F0.0
F30.165143
tp4604
a(S'Solve_Succeeded'
p4605
I126
F4.056446571158559
F8.10953
tp4606
a(S'Solve_Succeeded'
p4607
I96
F4.064992385974855
F5.556182
tp4608
a(S'Solve_Succeeded'
p4609
I155
F4.198935693898341
F10.141151
tp4610
a(S'Solve_Succeeded'
p4611
I55
F3.962407299226201
F3.148261
tp4612
a(S'Solve_Succeeded'
p4613
I55
F3.974599594783044
F3.210264
tp4614
a(S'Solve_Succeeded'
p4615
I45
F3.9588279642678597
F2.50734
tp4616
a(S'Solve_Succeeded'
p4617
I29
F3.9195781715404228
F1.492867
tp4618
a(S'Solve_Succeeded'
p4619
I60
F4.059573867040258
F3.797684
tp4620
a(S'Solve_Succeeded'
p4621
I137
F4.042426492725063
F9.799308
tp4622
a(S'Solve_Succeeded'
p4623
I200
F4.1291564792027025
F13.496312
tp4624
a(S'Solve_Succeeded'
p4625
I62
F4.084550347600377
F3.850636
tp4626
a(S'Solve_Succeeded'
p4627
I46
F3.9865519936892344
F2.402518
tp4628
a(g11
I444
F0.0
F30.119002
tp4629
a(S'Solve_Succeeded'
p4630
I200
F4.29010187346807
F12.990864
tp4631
a(S'Solve_Succeeded'
p4632
I45
F3.9598534546277233
F2.60291
tp4633
a(S'Solve_Succeeded'
p4634
I52
F4.084397677844566
F3.140996
tp4635
a(S'Solve_Succeeded'
p4636
I83
F4.091344840856567
F4.030097
tp4637
a(S'Solve_Succeeded'
p4638
I35
F3.9138393627928902
F1.960589
tp4639
a(S'Solve_Succeeded'
p4640
I73
F4.1756404341648565
F4.258858
tp4641
a(S'Solve_Succeeded'
p4642
I109
F4.117727527792744
F6.637173
tp4643
a(S'Solve_Succeeded'
p4644
I111
F3.992943808120356
F6.179132
tp4645
a(S'Solve_Succeeded'
p4646
I61
F3.989496079541383
F3.695283
tp4647
a(S'Solve_Succeeded'
p4648
I73
F3.965501904955403
F4.708719
tp4649
a(S'Solve_Succeeded'
p4650
I70
F4.06807132436747
F4.360053
tp4651
a(S'Solve_Succeeded'
p4652
I251
F4.096012428439853
F15.024357
tp4653
a(S'Solve_Succeeded'
p4654
I110
F3.971538581170677
F6.905538
tp4655
a(S'Solve_Succeeded'
p4656
I82
F4.033941655572048
F5.296764
tp4657
a(S'Solve_Succeeded'
p4658
I61
F4.004249241468982
F3.881922
tp4659
a(S'Solve_Succeeded'
p4660
I75
F3.989008607075947
F3.85533
tp4661
a(g11
I470
F0.0
F30.134323
tp4662
a(S'Solve_Succeeded'
p4663
I141
F3.9641925050524125
F8.937252
tp4664
a(S'Solve_Succeeded'
p4665
I59
F3.9286849472113965
F3.83714
tp4666
a(S'Solve_Succeeded'
p4667
I119
F3.9186852769776004
F7.154653
tp4668
a(g11
I412
F0.0
F30.131147
tp4669
a(S'Solve_Succeeded'
p4670
I44
F4.000786649070268
F2.689651
tp4671
a(S'Solve_Succeeded'
p4672
I81
F3.983975093088309
F4.641064
tp4673
a(S'Solve_Succeeded'
p4674
I139
F4.025514770550425
F10.280237
tp4675
a(S'Solve_Succeeded'
p4676
I130
F3.9949860973473053
F6.171255
tp4677
a(g11
I374
F0.0
F30.139716
tp4678
a(S'Solve_Succeeded'
p4679
I217
F4.016051939620768
F13.369736
tp4680
a(S'Solve_Succeeded'
p4681
I99
F4.069108909244218
F6.167682
tp4682
a(g11
I427
F0.0
F30.13443
tp4683
a(S'Solve_Succeeded'
p4684
I122
F3.907295021225132
F6.593361
tp4685
a(g11
I438
F0.0
F30.090861
tp4686
a(S'Solve_Succeeded'
p4687
I75
F3.9498604405860167
F3.953811
tp4688
a(S'Solve_Succeeded'
p4689
I66
F4.121578365897966
F3.499265
tp4690
a(S'Solve_Succeeded'
p4691
I37
F3.9197282527691324
F2.063633
tp4692
a(S'Solve_Succeeded'
p4693
I217
F3.9739635023915403
F14.463823
tp4694
a(S'Solve_Succeeded'
p4695
I191
F4.232086031494466
F12.623653
tp4696
a(S'Solve_Succeeded'
p4697
I430
F4.139476041083576
F29.480286
tp4698
a(S'Solve_Succeeded'
p4699
I61
F4.054761358353525
F3.885183
tp4700
a(S'Solve_Succeeded'
p4701
I155
F3.9453929720021286
F10.415635
tp4702
a(S'Solve_Succeeded'
p4703
I243
F4.191095767963618
F17.832328
tp4704
a(S'Solve_Succeeded'
p4705
I228
F4.0904759207398715
F16.544275
tp4706
a(S'Solve_Succeeded'
p4707
I107
F3.927052568448995
F5.860976
tp4708
a(S'Solve_Succeeded'
p4709
I88
F4.039808644641031
F5.658658
tp4710
a(S'Infeasible_Problem_Detected'
p4711
I349
F4.0334130320248045
F28.57676
tp4712
a(S'Solve_Succeeded'
p4713
I138
F4.023715815831435
F8.354654
tp4714
a(S'Solve_Succeeded'
p4715
I62
F4.172152689916262
F3.685707
tp4716
a(S'Solve_Succeeded'
p4717
I60
F4.184686656731296
F4.009082
tp4718
a(S'Solve_Succeeded'
p4719
I68
F4.0761006601348555
F5.147571
tp4720
a(S'Solve_Succeeded'
p4721
I136
F3.9797885501636534
F7.98691
tp4722
a(S'Solve_Succeeded'
p4723
I42
F4.0513298854706346
F2.104973
tp4724
a(S'Solve_Succeeded'
p4725
I189
F4.054620352645877
F13.540972
tp4726
a(S'Solve_Succeeded'
p4727
I44
F4.008606593099013
F2.63262
tp4728
a(S'Solve_Succeeded'
p4729
I313
F3.9912090518859284
F22.207308
tp4730
a(g11
I466
F0.0
F30.14443
tp4731
a(S'Solve_Succeeded'
p4732
I57
F3.9622639898302983
F3.115054
tp4733
a(g11
I411
F0.0
F30.236834
tp4734
a(g11
I405
F0.0
F30.162046
tp4735
a(S'Solve_Succeeded'
p4736
I81
F3.977694727710033
F4.709783
tp4737
a(S'Solve_Succeeded'
p4738
I36
F3.962204875476718
F1.897518
tp4739
a(S'Solve_Succeeded'
p4740
I186
F4.004350234656253
F8.793598
tp4741
a(S'Solve_Succeeded'
p4742
I87
F4.057858127343771
F4.655541
tp4743
a(g11
I387
F0.0
F30.145288
tp4744
a(S'Solve_Succeeded'
p4745
I66
F4.031259055964051
F3.192039
tp4746
a(S'Solve_Succeeded'
p4747
I115
F4.184253203875629
F7.166461
tp4748
a(g11
I470
F0.0
F30.145323
tp4749
a(S'Solve_Succeeded'
p4750
I121
F4.1022646131104334
F6.498331
tp4751
a(S'Solve_Succeeded'
p4752
I76
F4.144502469321877
F4.649374
tp4753
a(S'Solve_Succeeded'
p4754
I40
F3.934673686212751
F1.946262
tp4755
a(S'Solve_Succeeded'
p4756
I208
F3.9095195809713172
F15.232243
tp4757
a(S'Solve_Succeeded'
p4758
I207
F4.149523029923028
F13.408346
tp4759
a(S'Solve_Succeeded'
p4760
I224
F4.039969624275765
F12.343395
tp4761
a(S'Solve_Succeeded'
p4762
I73
F4.03578750427482
F3.750221
tp4763
a(S'Solve_Succeeded'
p4764
I43
F3.9261831960387963
F2.489836
tp4765
a(g11
I434
F0.0
F30.091563
tp4766
a(S'Solve_Succeeded'
p4767
I178
F4.126081428016885
F11.65403
tp4768
a(g11
I362
F0.0
F30.092415
tp4769
a(S'Solve_Succeeded'
p4770
I81
F4.044042278579805
F6.857761
tp4771
a(S'Solve_Succeeded'
p4772
I80
F4.260582278165956
F5.580499
tp4773
a(g11
I430
F0.0
F30.141252
tp4774
a(S'Solve_Succeeded'
p4775
I90
F3.973782778571842
F5.511179
tp4776
a(S'Solve_Succeeded'
p4777
I436
F3.9926823316769053
F28.947119
tp4778
a(g11
I424
F0.0
F30.117919
tp4779
a(S'Solve_Succeeded'
p4780
I115
F3.99792145831591
F6.476724
tp4781
a(S'Solve_Succeeded'
p4782
I78
F3.9934982101216994
F3.84212
tp4783
a(g11
I403
F0.0
F30.150633
tp4784
a(S'Solve_Succeeded'
p4785
I56
F3.9156426082135836
F3.043165
tp4786
a(S'Solve_Succeeded'
p4787
I228
F4.1399143408165235
F16.850366
tp4788
a(g11
I471
F0.0
F30.122191
tp4789
a(g11
I468
F0.0
F30.146465
tp4790
a(S'Solve_Succeeded'
p4791
I170
F4.093143296642036
F9.751671
tp4792
a(S'Solve_Succeeded'
p4793
I82
F3.9649287697396476
F4.832791
tp4794
a(g11
I370
F0.0
F30.173063
tp4795
a(S'Solve_Succeeded'
p4796
I51
F3.924386440409904
F2.904957
tp4797
a(g11
I477
F0.0
F30.113596
tp4798
a(S'Solve_Succeeded'
p4799
I116
F3.944851139868043
F7.143711
tp4800
a(S'Solve_Succeeded'
p4801
I37
F3.9636393390462765
F2.307084
tp4802
a(S'Solve_Succeeded'
p4803
I69
F4.006360537720967
F4.243099
tp4804
a(g11
I441
F0.0
F30.120977
tp4805
a(S'Solve_Succeeded'
p4806
I52
F3.99278928357101
F2.648859
tp4807
a(S'Solve_Succeeded'
p4808
I72
F3.9484939575578553
F4.693597
tp4809
a(S'Solve_Succeeded'
p4810
I205
F3.9117660408559294
F13.905133
tp4811
a(S'Solve_Succeeded'
p4812
I78
F4.044651270219832
F4.311514
tp4813
a(g11
I325
F0.0
F30.137804
tp4814
a(S'Solve_Succeeded'
p4815
I102
F4.08289223997665
F6.070639
tp4816
a(g11
I391
F0.0
F30.101031
tp4817
a(S'Solve_Succeeded'
p4818
I95
F4.092215100373592
F6.271625
tp4819
a(g11
I386
F0.0
F30.127611
tp4820
a(S'Solve_Succeeded'
p4821
I148
F3.9139589705677738
F8.382266
tp4822
a(S'Solve_Succeeded'
p4823
I116
F3.9431462993892854
F6.843969
tp4824
a(S'Solve_Succeeded'
p4825
I43
F4.048662739326087
F2.369471
tp4826
a(g11
I474
F0.0
F30.151124
tp4827
a(S'Solve_Succeeded'
p4828
I116
F3.909805751769754
F7.539192
tp4829
a(S'Solve_Succeeded'
p4830
I165
F3.922203103742288
F9.442886
tp4831
a(S'Solve_Succeeded'
p4832
I155
F4.223229672145668
F8.265434
tp4833
a(S'Solve_Succeeded'
p4834
I99
F3.9220033310620392
F6.652153
tp4835
a(S'Solve_Succeeded'
p4836
I105
F4.071741987428607
F6.276191
tp4837
a(g11
I439
F0.0
F30.172176
tp4838
a(S'Solve_Succeeded'
p4839
I55
F4.056142145783164
F2.896081
tp4840
a(g11
I449
F0.0
F30.153292
tp4841
a(S'Solve_Succeeded'
p4842
I35
F3.9368191289019174
F2.031776
tp4843
a(S'Solve_Succeeded'
p4844
I44
F3.9252972471849867
F2.474433
tp4845
a(S'Solve_Succeeded'
p4846
I101
F4.108814426346541
F5.971192
tp4847
a(S'Solve_Succeeded'
p4848
I34
F3.9747691365237126
F1.740567
tp4849
a(S'Solve_Succeeded'
p4850
I48
F3.9831486279704627
F2.592423
tp4851
a(S'Solve_Succeeded'
p4852
I70
F4.065850402059215
F3.948012
tp4853
a(S'Solve_Succeeded'
p4854
I65
F4.017390566644499
F3.67484
tp4855
a(S'Solve_Succeeded'
p4856
I80
F4.031527246091336
F4.970516
tp4857
a(S'Solve_Succeeded'
p4858
I85
F4.11740825540814
F4.526615
tp4859
a(S'Solve_Succeeded'
p4860
I61
F4.0430895013199315
F3.299021
tp4861
a(S'Solve_Succeeded'
p4862
I84
F3.990307695123444
F4.964729
tp4863
a(S'Solve_Succeeded'
p4864
I103
F4.115291600551346
F5.230323
tp4865
a(S'Solve_Succeeded'
p4866
I68
F4.085398767439199
F3.522013
tp4867
a(g11
I387
F0.0
F30.176535
tp4868
a(S'Solve_Succeeded'
p4869
I116
F4.209850747198851
F8.131787
tp4870
a(S'Solve_Succeeded'
p4871
I45
F4.063362719554732
F2.073307
tp4872
a(S'Solve_Succeeded'
p4873
I50
F4.047280426380106
F2.773821
tp4874
a(g11
I356
F0.0
F30.099787
tp4875
a(g11
I455
F0.0
F30.085285
tp4876
a(g11
I417
F0.0
F30.114093
tp4877
a(g11
I462
F0.0
F30.082128
tp4878
a(g11
I434
F0.0
F30.116943
tp4879
a(S'Solve_Succeeded'
p4880
I53
F4.003477612911889
F2.763646
tp4881
a(S'Solve_Succeeded'
p4882
I203
F4.060625433021806
F12.268614
tp4883
a(g11
I445
F0.0
F30.144731
tp4884
a(S'Solve_Succeeded'
p4885
I80
F4.036701537377825
F5.163755
tp4886
a(S'Solve_Succeeded'
p4887
I93
F4.017653109198511
F6.022292
tp4888
a(g11
I513
F0.0
F30.131846
tp4889
a(S'Solve_Succeeded'
p4890
I43
F3.9297180185948903
F2.327387
tp4891
a(S'Solve_Succeeded'
p4892
I223
F3.939850121962213
F15.978517
tp4893
a(g11
I479
F0.0
F30.139853
tp4894
a(S'Solve_Succeeded'
p4895
I57
F4.053016964052582
F2.939901
tp4896
a(S'Solve_Succeeded'
p4897
I171
F4.0188245246833985
F10.772515
tp4898
a(S'Solve_Succeeded'
p4899
I49
F3.9595191225625
F3.299105
tp4900
a(S'Solve_Succeeded'
p4901
I158
F3.9407066973569616
F12.294877
tp4902
a(S'Solve_Succeeded'
p4903
I162
F4.015431329704582
F11.326111
tp4904
a(S'Solve_Succeeded'
p4905
I376
F4.030494318348183
F26.605966
tp4906
a(S'Solve_Succeeded'
p4907
I201
F3.9192571347514105
F15.187952
tp4908
a(S'Solve_Succeeded'
p4909
I113
F3.9628958779625356
F6.399631
tp4910
a(S'Solve_Succeeded'
p4911
I46
F3.9907833891224884
F2.624837
tp4912
a(S'Solve_Succeeded'
p4913
I69
F4.071154150449716
F4.427855
tp4914
a(S'Solve_Succeeded'
p4915
I119
F3.9826746156670736
F8.003393
tp4916
a(S'Solve_Succeeded'
p4917
I94
F3.967574602426395
F4.585758
tp4918
a(g11
I432
F0.0
F30.118617
tp4919
a(S'Solve_Succeeded'
p4920
I67
F3.9500041712662344
F4.704755
tp4921
a(S'Solve_Succeeded'
p4922
I79
F3.969312757536488
F4.734485
tp4923
a(S'Solve_Succeeded'
p4924
I46
F3.9540807978452994
F2.474142
tp4925
a(S'Solve_Succeeded'
p4926
I32
F3.912430155031559
F1.82356
tp4927
a(S'Solve_Succeeded'
p4928
I41
F3.983083700970736
F2.762837
tp4929
a(g11
I357
F0.0
F30.103569
tp4930
a(g11
I408
F0.0
F30.183434
tp4931
a(S'Solve_Succeeded'
p4932
I87
F3.9672302461958138
F4.870578
tp4933
a(S'Solve_Succeeded'
p4934
I89
F3.9593058097813216
F5.960681
tp4935
a(g11
I484
F0.0
F30.112295
tp4936
a(S'Solve_Succeeded'
p4937
I211
F4.033246622105978
F15.327104
tp4938
a(S'Solve_Succeeded'
p4939
I149
F3.996012426879834
F10.096315
tp4940
a(g11
I423
F0.0
F30.113591
tp4941
a(S'Solve_Succeeded'
p4942
I329
F4.131075281824868
F20.856719
tp4943
a(S'Solve_Succeeded'
p4944
I85
F4.191512680388289
F4.864108
tp4945
a(S'Solve_Succeeded'
p4946
I144
F3.946540662946642
F10.219114
tp4947
a(S'Solve_Succeeded'
p4948
I34
F3.961368343650554
F1.947512
tp4949
a(g11
I395
F0.0
F30.133661
tp4950
a(g11
I404
F0.0
F30.102771
tp4951
a(S'Solve_Succeeded'
p4952
I46
F4.129558871033421
F3.049369
tp4953
a(S'Solve_Succeeded'
p4954
I224
F4.089999774955091
F15.040027
tp4955
a(S'Infeasible_Problem_Detected'
p4956
I146
F3.9776954611545867
F26.957335
tp4957
a(S'Solve_Succeeded'
p4958
I68
F4.055776616880807
F3.271406
tp4959
a(S'Solve_Succeeded'
p4960
I65
F4.011044470941877
F3.46748
tp4961
a(S'Solve_Succeeded'
p4962
I136
F4.0574844319205585
F7.865128
tp4963
a(S'Solve_Succeeded'
p4964
I57
F4.070654833378395
F3.499292
tp4965
a(S'Solve_Succeeded'
p4966
I49
F4.040255242924694
F2.760402
tp4967
a(S'Solve_Succeeded'
p4968
I246
F4.0247960268315035
F18.559945
tp4969
a(S'Solve_Succeeded'
p4970
I305
F3.951404115902822
F20.946325
tp4971
a(S'Solve_Succeeded'
p4972
I32
F3.990332541881971
F1.663072
tp4973
a(g11
I351
F0.0
F30.124645
tp4974
a(S'Solve_Succeeded'
p4975
I67
F4.046582234239482
F4.1739
tp4976
a(S'Solve_Succeeded'
p4977
I71
F3.9986205639430707
F4.354685
tp4978
a(S'Solve_Succeeded'
p4979
I111
F4.026362778274021
F5.80956
tp4980
a(S'Solve_Succeeded'
p4981
I70
F3.957331138442265
F3.96545
tp4982
a(S'Solve_Succeeded'
p4983
I284
F4.222787957764941
F23.988588
tp4984
a(S'Solve_Succeeded'
p4985
I103
F4.103120135440007
F6.470323
tp4986
a(S'Solve_Succeeded'
p4987
I58
F4.02790991057175
F3.227399
tp4988
a(S'Solve_Succeeded'
p4989
I95
F4.0957712449900905
F5.447969
tp4990
a(g11
I437
F0.0
F30.109722
tp4991
a(S'Solve_Succeeded'
p4992
I124
F4.094970266754706
F6.506696
tp4993
a(S'Solve_Succeeded'
p4994
I92
F4.003149064453393
F5.687138
tp4995
a(S'Solve_Succeeded'
p4996
I39
F3.943888179258433
F2.171291
tp4997
a(S'Solve_Succeeded'
p4998
I213
F4.013860613641131
F15.010485
tp4999
a(S'Solve_Succeeded'
p5000
I62
F3.9731499252631686
F4.276152
tp5001
a(S'Solve_Succeeded'
p5002
I114
F4.025693574216043
F6.103002
tp5003
a(S'Infeasible_Problem_Detected'
p5004
I299
F4.126863875176167
F20.093424
tp5005
a(S'Solve_Succeeded'
p5006
I121
F4.024172791965405
F7.252222
tp5007
a(S'Solve_Succeeded'
p5008
I227
F4.1992970764185245
F14.772209
tp5009
a(S'Solve_Succeeded'
p5010
I87
F3.9631525886247734
F5.858531
tp5011
a(S'Solve_Succeeded'
p5012
I90
F3.9377602740989754
F5.827798
tp5013
a(g11
I294
F0.0
F30.140639
tp5014
a(S'Solve_Succeeded'
p5015
I51
F4.07733202722927
F3.035282
tp5016
a(S'Solve_Succeeded'
p5017
I147
F3.9419225583492574
F8.877788
tp5018
a(S'Solve_Succeeded'
p5019
I40
F3.9365081383830716
F2.451908
tp5020
a(S'Solve_Succeeded'
p5021
I157
F4.119604619805945
F8.887946
tp5022
a(S'Solve_Succeeded'
p5023
I60
F4.061330418398881
F3.42129
tp5024
a(S'Solve_Succeeded'
p5025
I66
F4.163788332671763
F4.145988
tp5026
a(S'Solve_Succeeded'
p5027
I183
F4.055900800154409
F12.191284
tp5028
a(S'Solve_Succeeded'
p5029
I77
F3.927927302690485
F4.586488
tp5030
a(g11
I453
F0.0
F30.103742
tp5031
a(S'Solve_Succeeded'
p5032
I34
F3.955562100603902
F1.96171
tp5033
a(S'Solve_Succeeded'
p5034
I71
F3.9729053991675682
F5.594577
tp5035
a(S'Solve_Succeeded'
p5036
I78
F4.063962133853862
F4.505962
tp5037
a(g11
I413
F0.0
F30.141048
tp5038
a(S'Solve_Succeeded'
p5039
I41
F3.9265310583735964
F2.152474
tp5040
a(S'Solve_Succeeded'
p5041
I118
F3.9462618290139835
F7.952294
tp5042
a(S'Solve_Succeeded'
p5043
I84
F4.042125017795006
F4.580927
tp5044
a(g11
I473
F0.0
F30.187842
tp5045
a(S'Solve_Succeeded'
p5046
I122
F3.9786216278669584
F7.886184
tp5047
a(S'Solve_Succeeded'
p5048
I214
F4.074679691479485
F13.241817
tp5049
a(S'Solve_Succeeded'
p5050
I86
F3.970191482532355
F5.306603
tp5051
a(S'Solve_Succeeded'
p5052
I40
F3.923427089176798
F2.251236
tp5053
a(g11
I479
F0.0
F30.143556
tp5054
a(S'Solve_Succeeded'
p5055
I86
F4.115558473988041
F4.527783
tp5056
a(S'Solve_Succeeded'
p5057
I74
F4.077452737463475
F4.239785
tp5058
a(S'Solve_Succeeded'
p5059
I105
F3.9956213154623827
F5.99688
tp5060
a(S'Solve_Succeeded'
p5061
I110
F3.9601612318372874
F7.362624
tp5062
a(S'Solve_Succeeded'
p5063
I195
F4.102180074695376
F13.007204
tp5064
a(S'Solve_Succeeded'
p5065
I167
F4.064779445590593
F10.094428
tp5066
a(S'Solve_Succeeded'
p5067
I64
F4.085406432045044
F3.776723
tp5068
a(S'Solve_Succeeded'
p5069
I31
F3.9142869710707835
F1.579944
tp5070
a(S'Solve_Succeeded'
p5071
I36
F4.007673199643119
F1.99576
tp5072
a(S'Solve_Succeeded'
p5073
I176
F4.108385812755815
F11.736219
tp5074
a(g11
I472
F0.0
F30.07954
tp5075
a(S'Solve_Succeeded'
p5076
I57
F4.101324663495066
F3.155655
tp5077
a(g11
I372
F0.0
F30.099529
tp5078
a(S'Solve_Succeeded'
p5079
I59
F4.025880977185666
F2.979851
tp5080
a(S'Solve_Succeeded'
p5081
I145
F3.938117464787263
F7.530558
tp5082
a(S'Infeasible_Problem_Detected'
p5083
I342
F4.145469433349225
F25.743942
tp5084
a(g11
I512
F0.0
F30.13685
tp5085
a(S'Solve_Succeeded'
p5086
I101
F4.060351216179821
F5.463616
tp5087
a(g11
I367
F0.0
F30.227352
tp5088
a(g11
I459
F0.0
F30.15481
tp5089
a(S'Solve_Succeeded'
p5090
I148
F4.078462811814302
F7.694615
tp5091
a(S'Solve_Succeeded'
p5092
I78
F3.908172405202175
F5.011887
tp5093
a(S'Solve_Succeeded'
p5094
I116
F3.9085800504485326
F7.676235
tp5095
a(S'Solve_Succeeded'
p5096
I390
F4.256071403530507
F27.90713
tp5097
a(g11
I479
F0.0
F30.105137
tp5098
a(S'Solve_Succeeded'
p5099
I79
F3.990270721489281
F4.479379
tp5100
a(S'Solve_Succeeded'
p5101
I81
F4.123774103032165
F4.312942
tp5102
a(S'Solve_Succeeded'
p5103
I93
F4.01811790476388
F5.341094
tp5104
a(S'Solve_Succeeded'
p5105
I72
F4.042238242131065
F3.765604
tp5106
a(S'Solve_Succeeded'
p5107
I30
F3.9186977350330996
F1.579622
tp5108
a(S'Solve_Succeeded'
p5109
I51
F4.093619785800125
F4.153066
tp5110
a(S'Solve_Succeeded'
p5111
I133
F4.137907925805473
F7.75784
tp5112
a(S'Solve_Succeeded'
p5113
I38
F3.9575167368905775
F1.882838
tp5114
a(S'Solve_Succeeded'
p5115
I280
F3.9935017638196544
F14.82819
tp5116
a(S'Solve_Succeeded'
p5117
I48
F4.085811225629929
F2.39141
tp5118
a(S'Solve_Succeeded'
p5119
I86
F3.9373956644464445
F4.999271
tp5120
a(S'Solve_Succeeded'
p5121
I59
F3.991990536691838
F3.208814
tp5122
a(S'Solve_Succeeded'
p5123
I106
F4.058270219497593
F7.638944
tp5124
a(S'Solve_Succeeded'
p5125
I94
F4.026657808897892
F5.637936
tp5126
a(S'Solve_Succeeded'
p5127
I119
F3.919410153626859
F8.947346
tp5128
a(S'Solve_Succeeded'
p5129
I132
F4.141929370372209
F6.903428
tp5130
a(S'Solve_Succeeded'
p5131
I62
F3.905080790820081
F3.801854
tp5132
a(S'Solve_Succeeded'
p5133
I45
F4.053741620095659
F2.147605
tp5134
a(S'Solve_Succeeded'
p5135
I163
F3.9158915144418387
F10.121714
tp5136
a(S'Solve_Succeeded'
p5137
I44
F4.0115187923797935
F2.291723
tp5138
a(g11
I455
F0.0
F30.112561
tp5139
a(S'Solve_Succeeded'
p5140
I75
F4.109926350794578
F4.245831
tp5141
a(S'Solve_Succeeded'
p5142
I165
F4.526076913317658
F13.078812
tp5143
a(S'Solve_Succeeded'
p5144
I47
F3.9678180363498097
F2.805881
tp5145
a(S'Solve_Succeeded'
p5146
I188
F3.8987326688747057
F10.186577
tp5147
a(S'Solve_Succeeded'
p5148
I326
F4.08701752558127
F20.350955
tp5149
a(S'Solve_Succeeded'
p5150
I48
F3.9439570705910048
F2.540673
tp5151
a(S'Solve_Succeeded'
p5152
I196
F4.105229325981515
F12.650674
tp5153
a(S'Solve_Succeeded'
p5154
I34
F4.040376383125312
F1.655831
tp5155
a(S'Solve_Succeeded'
p5156
I123
F4.062507741635002
F7.074135
tp5157
a(S'Solve_Succeeded'
p5158
I73
F3.9205106659930307
F4.243445
tp5159
a(g11
I460
F0.0
F30.095026
tp5160
a(S'Solve_Succeeded'
p5161
I66
F4.05816011188749
F3.267906
tp5162
a(S'Solve_Succeeded'
p5163
I81
F4.124647413705023
F4.576071
tp5164
a(S'Solve_Succeeded'
p5165
I490
F4.194188542744724
F28.107222
tp5166
a(g11
I518
F0.0
F30.1996
tp5167
a(S'Solve_Succeeded'
p5168
I80
F4.001581516303514
F4.940314
tp5169
a(g11
I425
F0.0
F30.103564
tp5170
a(S'Solve_Succeeded'
p5171
I68
F3.924951565102339
F4.15911
tp5172
a(g11
I456
F0.0
F30.129076
tp5173
a(S'Solve_Succeeded'
p5174
I107
F4.0604686919428
F5.953908
tp5175
a(g11
I421
F0.0
F30.130544
tp5176
a(S'Solve_Succeeded'
p5177
I141
F3.9982389569883083
F8.227782
tp5178
a(S'Solve_Succeeded'
p5179
I126
F3.9313238207216106
F7.188338
tp5180
a(S'Solve_Succeeded'
p5181
I50
F3.945937201511915
F2.910917
tp5182
a(g11
I295
F0.0
F30.103772
tp5183
a(S'Solve_Succeeded'
p5184
I339
F3.9227034543674653
F22.575875
tp5185
a(S'Solve_Succeeded'
p5186
I72
F4.075779100443
F4.108585
tp5187
a(S'Solve_Succeeded'
p5188
I84
F3.914332507313906
F6.582896
tp5189
a(S'Solve_Succeeded'
p5190
I56
F3.9881203534943226
F3.147554
tp5191
a(S'Solve_Succeeded'
p5192
I317
F4.016600490393021
F26.085961
tp5193
a(S'Solve_Succeeded'
p5194
I175
F3.992472222103081
F9.450447
tp5195
a(S'Solve_Succeeded'
p5196
I53
F4.020652000968715
F2.779079
tp5197
a(g11
I387
F0.0
F30.116426
tp5198
a(g11
I369
F0.0
F30.10506
tp5199
a(g11
I361
F0.0
F30.129155
tp5200
a(S'Solve_Succeeded'
p5201
I240
F4.024803791226633
F15.233838
tp5202
a(S'Solve_Succeeded'
p5203
I34
F4.005467813424102
F1.749438
tp5204
a(S'Solve_Succeeded'
p5205
I89
F4.077380778938924
F5.356203
tp5206
a(g11
I385
F0.0
F30.075409
tp5207
a(S'Solve_Succeeded'
p5208
I98
F3.941365135618843
F6.191418
tp5209
a(S'Solve_Succeeded'
p5210
I192
F3.937586113797701
F12.277137
tp5211
a(S'Solve_Succeeded'
p5212
I81
F4.037133449530617
F4.085322
tp5213
a(S'Solve_Succeeded'
p5214
I131
F4.071576047737709
F8.764146
tp5215
a(S'Solve_Succeeded'
p5216
I50
F4.070487766790961
F3.083945
tp5217
a(S'Infeasible_Problem_Detected'
p5218
I297
F4.164746560023011
F24.56977
tp5219
a(S'Solve_Succeeded'
p5220
I75
F3.9550901835104666
F4.941293
tp5221
a(S'Solve_Succeeded'
p5222
I71
F4.122312441731064
F3.796501
tp5223
a(S'Solve_Succeeded'
p5224
I123
F4.025976756988728
F7.346715
tp5225
a(S'Solve_Succeeded'
p5226
I96
F3.964661528884242
F5.603939
tp5227
a(S'Solve_Succeeded'
p5228
I71
F4.0957629552030665
F4.024125
tp5229
a(g11
I442
F0.0
F30.119229
tp5230
a(S'Solve_Succeeded'
p5231
I83
F4.096137092871831
F4.968808
tp5232
a(S'Solve_Succeeded'
p5233
I68
F4.067848250286667
F4.078326
tp5234
a(S'Solve_Succeeded'
p5235
I49
F4.075260187728336
F3.049515
tp5236
a(S'Solve_Succeeded'
p5237
I142
F4.169201621569826
F7.000678
tp5238
a(S'Solve_Succeeded'
p5239
I62
F4.033608771734108
F4.360286
tp5240
a(S'Solve_Succeeded'
p5241
I90
F4.069072133120796
F5.36355
tp5242
a(S'Solve_Succeeded'
p5243
I66
F4.116896421588319
F4.457181
tp5244
a(S'Infeasible_Problem_Detected'
p5245
I275
F4.074012989587179
F24.685238
tp5246
a(g11
I459
F0.0
F30.112724
tp5247
a(S'Solve_Succeeded'
p5248
I85
F3.960962640645827
F5.868147
tp5249
a(S'Solve_Succeeded'
p5250
I61
F3.9684709729156102
F3.114023
tp5251
a(g11
I448
F0.0
F30.11225
tp5252
a(S'Solve_Succeeded'
p5253
I101
F3.9999740539136637
F5.40193
tp5254
a(S'Solve_Succeeded'
p5255
I82
F3.987436852712787
F4.281319
tp5256
a(S'Solve_Succeeded'
p5257
I190
F4.020792052364414
F13.150542
tp5258
a(S'Solve_Succeeded'
p5259
I128
F3.9449590770515366
F7.904198
tp5260
a(S'Solve_Succeeded'
p5261
I127
F4.047394069197872
F7.750281
tp5262
a(S'Solve_Succeeded'
p5263
I45
F3.9568872672308757
F2.53648
tp5264
a(S'Solve_Succeeded'
p5265
I89
F4.0667359414232065
F5.734258
tp5266
a(g11
I476
F0.0
F30.169993
tp5267
a(S'Solve_Succeeded'
p5268
I136
F3.914166480966609
F6.469443
tp5269
a(S'Solve_Succeeded'
p5270
I103
F4.088604328786573
F6.343417
tp5271
a(S'Solve_Succeeded'
p5272
I291
F4.019896389264086
F18.457757
tp5273
a(g11
I551
F0.0
F30.162263
tp5274
a(S'Solve_Succeeded'
p5275
I45
F4.102912869816958
F2.781377
tp5276
a(S'Solve_Succeeded'
p5277
I45
F3.936985981605209
F2.254684
tp5278
a(S'Solve_Succeeded'
p5279
I115
F4.011827297463785
F8.182672
tp5280
a(S'Solve_Succeeded'
p5281
I50
F4.012007541995498
F2.66978
tp5282
a(g11
I423
F0.0
F30.147962
tp5283
a(g11
I443
F0.0
F30.142052
tp5284
a(S'Infeasible_Problem_Detected'
p5285
I309
F4.167631557513389
F26.925531
tp5286
a(S'Solve_Succeeded'
p5287
I281
F3.9964159430882304
F16.93352
tp5288
a(S'Solve_Succeeded'
p5289
I97
F3.8994784410659573
F6.893824
tp5290
a(S'Solve_Succeeded'
p5291
I111
F4.465159176310157
F9.52674
tp5292
a(S'Solve_Succeeded'
p5293
I56
F4.011149050078942
F2.878354
tp5294
a(S'Solve_Succeeded'
p5295
I63
F4.067391137381802
F3.01516
tp5296
a(g11
I342
F0.0
F30.09548
tp5297
a(S'Solve_Succeeded'
p5298
I471
F4.094346189337992
F26.265201
tp5299
a(S'Solve_Succeeded'
p5300
I116
F4.085221581262852
F7.538889
tp5301
a(S'Solve_Succeeded'
p5302
I112
F3.9176212120413147
F7.244924
tp5303
a(g11
I423
F0.0
F30.160272
tp5304
a(S'Solve_Succeeded'
p5305
I117
F4.175719587001028
F6.453564
tp5306
a(S'Solve_Succeeded'
p5307
I43
F4.039400576337099
F2.645184
tp5308
a(S'Solve_Succeeded'
p5309
I224
F4.169567694939963
F13.953358
tp5310
a(S'Solve_Succeeded'
p5311
I122
F3.9501479633928214
F7.842221
tp5312
a(S'Solve_Succeeded'
p5313
I62
F4.102000781219629
F3.73023
tp5314
a(S'Solve_Succeeded'
p5315
I79
F4.021368672316385
F5.17139
tp5316
a(S'Solve_Succeeded'
p5317
I95
F3.986710857182931
F5.006201
tp5318
a(g11
I385
F0.0
F30.070817
tp5319
a(S'Solve_Succeeded'
p5320
I104
F4.064660287918256
F5.095576
tp5321
a(S'Solve_Succeeded'
p5322
I43
F3.9088532718580997
F2.436375
tp5323
a(S'Solve_Succeeded'
p5324
I200
F4.156888849507807
F17.03396
tp5325
a(g11
I367
F0.0
F30.089805
tp5326
a(S'Solve_Succeeded'
p5327
I72
F4.06614826477245
F4.229595
tp5328
a(S'Solve_Succeeded'
p5329
I171
F3.92088029674045
F14.133327
tp5330
a(g11
I473
F0.0
F30.096635
tp5331
a(S'Solve_Succeeded'
p5332
I156
F3.9317886265979305
F11.038854
tp5333
a(S'Solve_Succeeded'
p5334
I28
F4.046732346421675
F1.253496
tp5335
a(S'Solve_Succeeded'
p5336
I236
F4.345349822968906
F15.950252
tp5337
a(g11
I413
F0.0
F30.091137
tp5338
a(S'Solve_Succeeded'
p5339
I134
F3.9998453148621067
F7.645748
tp5340
a(S'Solve_Succeeded'
p5341
I123
F4.089436019102846
F8.733487
tp5342
a(S'Solve_Succeeded'
p5343
I347
F4.10836043476313
F23.821683
tp5344
a(S'Solve_Succeeded'
p5345
I131
F3.915895991466269
F8.181765
tp5346
a(S'Solve_Succeeded'
p5347
I97
F4.113557389885767
F5.140539
tp5348
a(S'Solve_Succeeded'
p5349
I161
F3.9306977990855305
F9.428145
tp5350
ass.