(dp0
S'hrsg'
p1
(dp2
S'1'
p3
(lp4
(S'Solve_Succeeded'
p5
I29
F70.70263806451548
F2.407055
tp6
a(S'Solve_Succeeded'
p7
I19
F73.76065695069987
F1.566599
tp8
a(S'Solve_Succeeded'
p9
I53
F85.67484980140028
F6.086565
tp10
a(S'Maximum_CPU_Time_Exceeded'
p11
I71
F0.0
F30.101344
tp12
a(S'Solve_Succeeded'
p13
I19
F86.96198796160951
F1.57834
tp14
a(S'Solve_Succeeded'
p15
I68
F81.73946022957946
F7.744525
tp16
a(S'Solve_Succeeded'
p17
I20
F74.56643072676093
F1.673816
tp18
a(S'Solve_Succeeded'
p19
I115
F81.12159813025555
F16.779206
tp20
a(S'Solve_Succeeded'
p21
I60
F90.34876087107408
F6.349573
tp22
a(S'Solve_Succeeded'
p23
I77
F77.82357283530743
F10.730729
tp24
a(S'Solve_Succeeded'
p25
I21
F72.13422854823877
F1.729301
tp26
a(S'Solve_Succeeded'
p27
I61
F71.44978926761073
F6.350451
tp28
a(g11
I56
F0.0
F34.147444
tp29
a(g11
I88
F0.0
F30.527525
tp30
a(S'Solve_Succeeded'
p31
I47
F72.97697874812894
F4.631506
tp32
a(S'Solve_Succeeded'
p33
I109
F88.56928285347864
F18.644701
tp34
a(S'Solve_Succeeded'
p35
I33
F81.48190430244759
F3.217858
tp36
a(S'Solve_Succeeded'
p37
I104
F91.27617409907326
F11.67871
tp38
a(S'Solve_Succeeded'
p39
I22
F65.3913950339116
F1.782359
tp40
a(S'Solve_Succeeded'
p41
I135
F76.29364414595157
F15.984936
tp42
a(S'Solve_Succeeded'
p43
I111
F97.26189941265477
F15.712153
tp44
a(S'Solve_Succeeded'
p45
I53
F78.89755681926519
F7.150503
tp46
a(S'Solve_Succeeded'
p47
I28
F88.50916298044687
F2.393144
tp48
a(S'Solve_Succeeded'
p49
I46
F81.8797159561496
F4.332368
tp50
a(S'Solve_Succeeded'
p51
I34
F94.21385713079427
F3.015954
tp52
a(S'Solve_Succeeded'
p53
I22
F67.64054531850498
F1.777734
tp54
a(S'Solve_Succeeded'
p55
I47
F85.35554176957854
F4.382353
tp56
a(S'Solve_Succeeded'
p57
I20
F79.6567939497524
F1.63705
tp58
a(S'Solve_Succeeded'
p59
I19
F66.05689447659496
F1.536035
tp60
a(S'Solve_Succeeded'
p61
I87
F83.62420153968617
F11.849619
tp62
a(S'Solve_Succeeded'
p63
I23
F74.30112900836272
F1.950015
tp64
a(S'Solve_Succeeded'
p65
I123
F78.8705397065081
F13.82965
tp66
a(S'Solve_Succeeded'
p67
I46
F78.41457509164437
F5.375849
tp68
a(S'Solve_Succeeded'
p69
I62
F85.79352050098515
F10.93923
tp70
a(S'Solve_Succeeded'
p71
I81
F77.89755694790396
F9.493048
tp72
a(S'Solve_Succeeded'
p73
I78
F80.19488160694837
F14.763947
tp74
a(S'Solve_Succeeded'
p75
I78
F86.25549725006731
F8.550257
tp76
a(S'Solve_Succeeded'
p77
I49
F77.6990906011206
F4.939239
tp78
a(S'Solve_Succeeded'
p79
I70
F77.86963014797999
F8.680922
tp80
a(S'Solve_Succeeded'
p81
I23
F79.51924822138932
F1.932305
tp82
a(S'Solve_Succeeded'
p83
I68
F83.91056485488045
F7.378922
tp84
a(S'Solve_Succeeded'
p85
I33
F64.11863773904311
F3.115098
tp86
a(S'Solve_Succeeded'
p87
I21
F76.10936687438888
F1.723199
tp88
a(S'Solve_Succeeded'
p89
I75
F70.65724335144735
F8.352051
tp90
a(g11
I67
F0.0
F30.31809
tp91
a(S'Solve_Succeeded'
p92
I23
F78.33038420566477
F1.899284
tp93
a(g11
I100
F0.0
F30.085296
tp94
a(S'Solve_Succeeded'
p95
I57
F77.07420958215432
F7.565832
tp96
a(g11
I64
F0.0
F30.094479
tp97
a(S'Solve_Succeeded'
p98
I22
F71.35577642071834
F1.803292
tp99
asS'0'
p100
(lp101
(S'Solve_Succeeded'
p102
I28
F70.70263806451689
F2.893379
tp103
a(S'Solve_Succeeded'
p104
I18
F73.76065695070645
F1.876449
tp105
a(S'Solve_Succeeded'
p106
I62
F85.67484980140473
F8.723491
tp107
a(g11
I40
F0.0
F30.592147
tp108
a(S'Solve_Succeeded'
p109
I65
F86.96198796161048
F10.11136
tp110
a(S'Solve_Succeeded'
p111
I47
F81.73946022957975
F6.423013
tp112
a(S'Solve_Succeeded'
p113
I20
F74.56643072676097
F2.104113
tp114
a(S'Solve_Succeeded'
p115
I89
F81.12159813025627
F11.013519
tp116
a(S'Solve_Succeeded'
p117
I57
F90.348760871074
F7.575038
tp118
a(S'Solve_Succeeded'
p119
I40
F77.82357283530766
F4.709769
tp120
a(S'Solve_Succeeded'
p121
I21
F72.1342285482389
F2.162692
tp122
a(S'Solve_Succeeded'
p123
I43
F71.44978926760996
F4.497688
tp124
a(g11
I89
F0.0
F30.301528
tp125
a(g11
I99
F0.0
F30.08339
tp126
a(S'Solve_Succeeded'
p127
I57
F72.97697874812664
F7.167188
tp128
a(S'Solve_Succeeded'
p129
I68
F88.56928285348147
F8.485149
tp130
a(S'Solve_Succeeded'
p131
I61
F81.48190430244813
F7.157171
tp132
a(S'Solve_Succeeded'
p133
I78
F91.27617409907383
F10.106728
tp134
a(S'Solve_Succeeded'
p135
I23
F65.39139503391543
F2.354565
tp136
a(S'Solve_Succeeded'
p137
I51
F76.293644145953
F7.078796
tp138
a(S'Solve_Succeeded'
p139
I122
F97.26189941265497
F16.729558
tp140
a(S'Solve_Succeeded'
p141
I79
F78.89755681926532
F15.368633
tp142
a(S'Solve_Succeeded'
p143
I48
F88.50916298044655
F8.302551
tp144
a(S'Solve_Succeeded'
p145
I97
F81.87971595614896
F13.474461
tp146
a(S'Solve_Succeeded'
p147
I21
F94.21385713079646
F2.175203
tp148
a(S'Solve_Succeeded'
p149
I22
F67.64054531850502
F2.27711
tp150
a(S'Solve_Succeeded'
p151
I20
F85.35554176958047
F2.057105
tp152
a(S'Solve_Succeeded'
p153
I20
F79.65679394975365
F2.055885
tp154
a(S'Solve_Succeeded'
p155
I19
F66.05689447659482
F1.971103
tp156
a(S'Solve_Succeeded'
p157
I44
F83.62420153968628
F4.677787
tp158
a(S'Solve_Succeeded'
p159
I23
F74.30112900836265
F2.313767
tp160
a(S'Solve_Succeeded'
p161
I113
F78.87053970651097
F14.817634
tp162
a(S'Solve_Succeeded'
p163
I58
F78.41457509164414
F6.161116
tp164
a(S'Solve_Succeeded'
p165
I72
F85.7935205009849
F9.475934
tp166
a(S'Solve_Succeeded'
p167
I81
F77.89755694790338
F9.523488
tp168
a(S'Solve_Succeeded'
p169
I67
F80.19488160696055
F7.801401
tp170
a(S'Solve_Succeeded'
p171
I95
F86.25549725006687
F16.150939
tp172
a(S'Solve_Succeeded'
p173
I46
F77.69909060111998
F8.663676
tp174
a(S'Solve_Succeeded'
p175
I44
F77.86963014798145
F9.733283
tp176
a(S'Solve_Succeeded'
p177
I48
F79.51924822138955
F5.275747
tp178
a(S'Solve_Succeeded'
p179
I81
F83.91056485488116
F10.551939
tp180
a(S'Solve_Succeeded'
p181
I64
F64.11863773904345
F11.717553
tp182
a(S'Solve_Succeeded'
p183
I23
F76.10936687438844
F2.394727
tp184
a(S'Solve_Succeeded'
p185
I25
F70.6572433514463
F2.72567
tp186
a(g11
I90
F0.0
F30.044147
tp187
a(S'Solve_Succeeded'
p188
I87
F78.33038420566308
F11.1628
tp189
a(S'Solve_Succeeded'
p190
I66
F94.4659488162117
F7.819461
tp191
a(S'Solve_Succeeded'
p192
I47
F77.07420958215415
F6.282433
tp193
a(g11
I156
F0.0
F30.095877
tp194
a(S'Solve_Succeeded'
p195
I50
F71.35577642071763
F6.23135
tp196
asS'3'
p197
(lp198
(S'Solve_Succeeded'
p199
I106
F70.70263806451557
F11.632411
tp200
a(S'Solve_Succeeded'
p201
I19
F73.7606569506995
F1.481551
tp202
a(S'Solve_Succeeded'
p203
I23
F85.67484980140503
F1.761873
tp204
a(S'Solve_Succeeded'
p205
I64
F69.26610487374059
F14.541618
tp206
a(S'Solve_Succeeded'
p207
I57
F86.96198796161009
F5.663858
tp208
a(S'Solve_Succeeded'
p209
I54
F81.73946022958144
F5.19812
tp210
a(S'Solve_Succeeded'
p211
I65
F74.56643072676103
F6.552681
tp212
a(S'Solve_Succeeded'
p213
I44
F81.12159813025336
F4.352539
tp214
a(S'Solve_Succeeded'
p215
I41
F90.34876087107335
F3.922126
tp216
a(S'Solve_Succeeded'
p217
I20
F77.82357283530928
F1.555848
tp218
a(S'Solve_Succeeded'
p219
I80
F72.13422854823872
F8.360855
tp220
a(S'Solve_Succeeded'
p221
I48
F71.44978926760989
F4.816323
tp222
a(S'Infeasible_Problem_Detected'
p223
I81
F95.74189126638537
F16.596788
tp224
a(g11
I27
F0.0
F30.080769
tp225
a(S'Solve_Succeeded'
p226
I53
F72.97697874812957
F5.915106
tp227
a(S'Solve_Succeeded'
p228
I102
F88.56928285347824
F11.123712
tp229
a(S'Solve_Succeeded'
p230
I48
F81.4819043024485
F4.97442
tp231
a(S'Solve_Succeeded'
p232
I108
F91.2761740990734
F12.239703
tp233
a(S'Solve_Succeeded'
p234
I40
F65.39139503391553
F3.685045
tp235
a(S'Solve_Succeeded'
p236
I106
F76.2936441459521
F11.502795
tp237
a(S'Solve_Succeeded'
p238
I76
F97.26189941265442
F8.103331
tp239
a(S'Solve_Succeeded'
p240
I68
F78.89755681926532
F7.043772
tp241
a(S'Solve_Succeeded'
p242
I29
F88.50916298044496
F2.356473
tp243
a(S'Solve_Succeeded'
p244
I67
F81.87971595614893
F8.165783
tp245
a(S'Solve_Succeeded'
p246
I84
F94.21385713079412
F9.509472
tp247
a(S'Solve_Succeeded'
p248
I44
F67.64054531850495
F4.270341
tp249
a(S'Solve_Succeeded'
p250
I52
F85.35554176957807
F5.080522
tp251
a(S'Solve_Succeeded'
p252
I53
F79.6567939497512
F5.140107
tp253
a(S'Solve_Succeeded'
p254
I72
F66.05689447659485
F7.724349
tp255
a(S'Solve_Succeeded'
p256
I41
F83.62420153968648
F4.093266
tp257
a(S'Solve_Succeeded'
p258
I50
F74.30112900836212
F4.816448
tp259
a(S'Solve_Succeeded'
p260
I93
F78.8705397065113
F9.768132
tp261
a(S'Solve_Succeeded'
p262
I97
F78.41457509164408
F10.289453
tp263
a(S'Solve_Succeeded'
p264
I78
F85.7935205009849
F8.29799
tp265
a(S'Solve_Succeeded'
p266
I61
F77.8975569479035
F6.508008
tp267
a(S'Solve_Succeeded'
p268
I21
F80.1948816069617
F1.591079
tp269
a(S'Solve_Succeeded'
p270
I85
F86.25549725006924
F9.469985
tp271
a(S'Solve_Succeeded'
p272
I40
F77.69909060112009
F4.348747
tp273
a(S'Solve_Succeeded'
p274
I55
F77.86963014797949
F5.917384
tp275
a(S'Solve_Succeeded'
p276
I75
F79.51924822138957
F7.774967
tp277
a(S'Solve_Succeeded'
p278
I75
F83.91056485488042
F8.057246
tp279
a(S'Solve_Succeeded'
p280
I43
F64.11863773904358
F4.075546
tp281
a(S'Solve_Succeeded'
p282
I66
F76.10936687438681
F6.821309
tp283
a(S'Solve_Succeeded'
p284
I60
F70.65724335144543
F5.950202
tp285
a(g11
I110
F0.0
F31.018392
tp286
a(S'Solve_Succeeded'
p287
I34
F78.33038420566416
F3.095242
tp288
a(S'Solve_Succeeded'
p289
I87
F94.4659488162117
F9.475863
tp290
a(S'Solve_Succeeded'
p291
I70
F77.07420958215437
F7.172659
tp292
a(S'Infeasible_Problem_Detected'
p293
I72
F91.4603302989446
F16.729343
tp294
a(S'Solve_Succeeded'
p295
I62
F71.35577642071742
F6.186145
tp296
asS'4.02'
p297
(lp298
(g11
I39
F0.0
F30.08586
tp299
a(g11
I38
F0.0
F30.898787
tp300
a(g11
I47
F0.0
F30.939041
tp301
a(g11
I36
F0.0
F30.594428
tp302
a(g11
I42
F0.0
F30.284868
tp303
a(g11
I43
F0.0
F30.198657
tp304
a(g11
I45
F0.0
F31.291344
tp305
a(g11
I38
F0.0
F30.093526
tp306
a(g11
I37
F0.0
F30.090092
tp307
a(g11
I46
F0.0
F31.084345
tp308
a(g11
I46
F0.0
F30.290132
tp309
a(g11
I43
F0.0
F33.311248
tp310
a(g11
I41
F0.0
F30.624606
tp311
a(g11
I41
F0.0
F30.911228
tp312
a(g11
I40
F0.0
F30.701405
tp313
a(g11
I40
F0.0
F31.70032
tp314
a(g11
I43
F0.0
F30.504007
tp315
a(g11
I44
F0.0
F31.0415
tp316
a(g11
I41
F0.0
F30.245106
tp317
a(g11
I43
F0.0
F30.957694
tp318
a(g11
I42
F0.0
F31.864725
tp319
a(g11
I42
F0.0
F30.317823
tp320
a(g11
I37
F0.0
F30.864938
tp321
a(g11
I38
F0.0
F30.706482
tp322
a(g11
I41
F0.0
F30.516659
tp323
a(g11
I37
F0.0
F30.343383
tp324
a(g11
I43
F0.0
F32.366808
tp325
a(g11
I40
F0.0
F30.201248
tp326
a(g11
I41
F0.0
F31.298865
tp327
a(g11
I37
F0.0
F30.194399
tp328
a(g11
I42
F0.0
F31.152869
tp329
a(g11
I39
F0.0
F30.030704
tp330
a(g11
I41
F0.0
F30.732714
tp331
a(g11
I44
F0.0
F30.349076
tp332
a(g11
I28
F0.0
F34.076272
tp333
a(g11
I45
F0.0
F30.972128
tp334
a(g11
I41
F0.0
F31.041641
tp335
a(g11
I42
F0.0
F30.108105
tp336
a(g11
I47
F0.0
F31.098152
tp337
a(g11
I40
F0.0
F31.161406
tp338
a(g11
I43
F0.0
F31.458238
tp339
a(g11
I43
F0.0
F30.248167
tp340
a(g11
I42
F0.0
F31.182611
tp341
a(g11
I39
F0.0
F30.296893
tp342
a(g11
I36
F0.0
F30.330939
tp343
a(g11
I41
F0.0
F31.274849
tp344
a(g11
I39
F0.0
F30.657656
tp345
a(g11
I43
F0.0
F30.876785
tp346
a(g11
I44
F0.0
F30.737882
tp347
a(g11
I43
F0.0
F31.632061
tp348
asS'4.04'
p349
(lp350
(g11
I59
F0.0
F30.658967
tp351
a(S'Solve_Succeeded'
p352
I154
F73.1936883553175
F16.461951
tp353
a(S'Solve_Succeeded'
p354
I69
F85.06468695273253
F6.619876
tp355
a(g11
I42
F0.0
F30.347682
tp356
a(S'Solve_Succeeded'
p357
I119
F86.3227097852707
F12.326667
tp358
a(S'Solve_Succeeded'
p359
I132
F80.99881932501167
F15.462345
tp360
a(S'Solve_Succeeded'
p361
I121
F73.79089296408728
F14.555939
tp362
a(S'Solve_Succeeded'
p363
I150
F80.94690775035393
F16.661312
tp364
a(S'Solve_Succeeded'
p365
I194
F89.3452721252482
F23.861214
tp366
a(S'Solve_Succeeded'
p367
I175
F77.21808862301562
F21.780621
tp368
a(S'Solve_Succeeded'
p369
I105
F71.48405145948001
F11.672406
tp370
a(S'Solve_Succeeded'
p371
I126
F71.19704587052048
F13.243159
tp372
a(g11
I53
F0.0
F30.149405
tp373
a(S'Infeasible_Problem_Detected'
p374
I31
F86.77099006908867
F11.882468
tp375
a(S'Solve_Succeeded'
p376
I164
F72.60745104002525
F19.717878
tp377
a(S'Solve_Succeeded'
p378
I153
F88.35452450424388
F23.554486
tp379
a(S'Solve_Succeeded'
p380
I171
F81.09965721380989
F20.738445
tp381
a(S'Solve_Succeeded'
p382
I135
F90.64478546971732
F28.282263
tp383
a(S'Solve_Succeeded'
p384
I128
F64.41048883098051
F14.088137
tp385
a(g11
I126
F0.0
F30.123472
tp386
a(g11
I96
F0.0
F30.108705
tp387
a(S'Solve_Succeeded'
p388
I128
F78.4110238462891
F18.171506
tp389
a(S'Solve_Succeeded'
p390
I141
F87.66488302036159
F17.031602
tp391
a(S'Solve_Succeeded'
p392
I140
F81.17247047902838
F17.099759
tp393
a(S'Solve_Succeeded'
p394
I115
F93.63805718008282
F13.120039
tp395
a(g11
I101
F0.0
F30.148554
tp396
a(S'Solve_Succeeded'
p397
I109
F84.87715876001664
F11.721309
tp398
a(S'Solve_Succeeded'
p399
I161
F79.21226582399723
F17.000165
tp400
a(S'Solve_Succeeded'
p401
I139
F65.38075942829002
F15.49326
tp402
a(S'Infeasible_Problem_Detected'
p403
I88
F89.49655957805675
F18.940761
tp404
a(S'Solve_Succeeded'
p405
I178
F74.20148197836423
F22.944605
tp406
a(S'Solve_Succeeded'
p407
I114
F78.20544136313275
F12.212572
tp408
a(S'Solve_Succeeded'
p409
I129
F77.4152063406431
F14.175363
tp410
a(S'Solve_Succeeded'
p411
I192
F85.09081454579292
F21.923118
tp412
a(g11
I34
F0.0
F30.075219
tp413
a(S'Solve_Succeeded'
p414
I177
F79.6924318212269
F20.686754
tp415
a(S'Solve_Succeeded'
p416
I126
F85.61086669024431
F15.22531
tp417
a(S'Solve_Succeeded'
p418
I141
F76.9860105208959
F15.877955
tp419
a(S'Solve_Succeeded'
p420
I173
F77.32586110466535
F19.572717
tp421
a(S'Solve_Succeeded'
p422
I130
F79.28935110328173
F14.662307
tp423
a(S'Solve_Succeeded'
p424
I166
F82.70452546194308
F19.641161
tp425
a(S'Solve_Succeeded'
p426
I150
F64.0567503528536
F17.37285
tp427
a(S'Solve_Succeeded'
p428
I178
F75.62166455494066
F22.141775
tp429
a(S'Solve_Succeeded'
p430
I196
F70.27125073713987
F22.209307
tp431
a(g11
I92
F0.0
F31.351342
tp432
a(S'Solve_Succeeded'
p433
I148
F77.8512503502654
F17.764535
tp434
a(S'Solve_Succeeded'
p435
I142
F94.47152468496763
F19.47869
tp436
a(S'Solve_Succeeded'
p437
I143
F76.53428742535715
F16.239084
tp438
a(g11
I65
F0.0
F30.043247
tp439
a(g11
I116
F0.0
F30.059312
tp440
ass.