(dp0
S'dist4'
p1
(dp2
S'0'
p3
(lp4
(S'Maximum_CPU_Time_Exceeded'
p5
I19
F0.0
F41.135064
tp6
a(g5
I18
F0.0
F40.345585
tp7
a(g5
I18
F0.0
F40.675762
tp8
a(g5
I19
F0.0
F42.589404
tp9
a(g5
I19
F0.0
F41.377269
tp10
a(g5
I19
F0.0
F41.880753
tp11
a(g5
I19
F0.0
F41.671867
tp12
a(g5
I20
F0.0
F42.189826
tp13
a(g5
I19
F0.0
F41.535896
tp14
a(g5
I18
F0.0
F40.057212
tp15
a(g5
I18
F0.0
F41.010608
tp16
a(g5
I19
F0.0
F42.496817
tp17
a(g5
I17
F0.0
F41.461303
tp18
a(g5
I19
F0.0
F41.197662
tp19
a(g5
I22
F0.0
F41.584141
tp20
a(g5
I18
F0.0
F40.475999
tp21
a(g5
I18
F0.0
F40.419101
tp22
a(g5
I20
F0.0
F41.241798
tp23
a(g5
I20
F0.0
F42.165658
tp24
a(g5
I18
F0.0
F40.706404
tp25
a(g5
I20
F0.0
F41.771277
tp26
a(g5
I18
F0.0
F41.200632
tp27
a(g5
I21
F0.0
F41.750313
tp28
a(g5
I20
F0.0
F42.003884
tp29
a(g5
I17
F0.0
F41.695367
tp30
a(g5
I18
F0.0
F40.26668
tp31
a(g5
I16
F0.0
F40.651249
tp32
a(g5
I17
F0.0
F40.219631
tp33
a(g5
I20
F0.0
F42.127063
tp34
a(g5
I18
F0.0
F42.728214
tp35
a(g5
I16
F0.0
F40.286197
tp36
a(g5
I19
F0.0
F42.21555
tp37
a(g5
I19
F0.0
F41.651147
tp38
a(g5
I18
F0.0
F40.243967
tp39
a(g5
I20
F0.0
F41.442615
tp40
a(g5
I21
F0.0
F41.272404
tp41
a(g5
I16
F0.0
F42.519412
tp42
a(g5
I18
F0.0
F40.494835
tp43
a(g5
I19
F0.0
F42.493206
tp44
a(g5
I19
F0.0
F41.092368
tp45
a(g5
I19
F0.0
F42.354627
tp46
a(g5
I21
F0.0
F41.783252
tp47
a(g5
I19
F0.0
F42.004974
tp48
a(g5
I17
F0.0
F40.957279
tp49
a(g5
I20
F0.0
F40.34083
tp50
a(g5
I20
F0.0
F40.155697
tp51
a(g5
I19
F0.0
F41.774429
tp52
a(g5
I20
F0.0
F40.526827
tp53
a(g5
I21
F0.0
F41.187431
tp54
a(g5
I21
F0.0
F42.707648
tp55
a(g5
I19
F0.0
F42.119411
tp56
a(g5
I17
F0.0
F41.610521
tp57
a(g5
I19
F0.0
F40.976384
tp58
a(g5
I19
F0.0
F41.690153
tp59
a(g5
I18
F0.0
F42.722432
tp60
a(g5
I19
F0.0
F41.072857
tp61
a(g5
I18
F0.0
F41.336964
tp62
a(g5
I18
F0.0
F41.057496
tp63
a(g5
I19
F0.0
F42.103522
tp64
a(g5
I18
F0.0
F42.54423
tp65
a(g5
I19
F0.0
F41.509929
tp66
a(g5
I18
F0.0
F41.021534
tp67
a(g5
I20
F0.0
F41.221213
tp68
a(g5
I19
F0.0
F40.28385
tp69
a(g5
I19
F0.0
F40.144116
tp70
a(g5
I20
F0.0
F41.224338
tp71
a(g5
I19
F0.0
F41.439173
tp72
a(g5
I20
F0.0
F41.488148
tp73
a(g5
I18
F0.0
F40.8392
tp74
a(g5
I20
F0.0
F40.525775
tp75
a(g5
I18
F0.0
F40.05194
tp76
a(g5
I18
F0.0
F41.95353
tp77
a(g5
I18
F0.0
F40.042721
tp78
a(g5
I18
F0.0
F40.820644
tp79
a(g5
I19
F0.0
F43.544837
tp80
a(g5
I20
F0.0
F40.812078
tp81
a(g5
I17
F0.0
F41.801139
tp82
a(g5
I17
F0.0
F40.258396
tp83
a(g5
I19
F0.0
F40.20925
tp84
a(g5
I19
F0.0
F41.094014
tp85
a(g5
I18
F0.0
F42.052489
tp86
a(g5
I19
F0.0
F41.248932
tp87
a(g5
I19
F0.0
F40.917838
tp88
a(g5
I19
F0.0
F41.759471
tp89
a(g5
I19
F0.0
F40.426638
tp90
a(g5
I18
F0.0
F40.501319
tp91
a(g5
I19
F0.0
F41.701597
tp92
a(g5
I16
F0.0
F40.240746
tp93
a(g5
I19
F0.0
F42.173848
tp94
a(g5
I18
F0.0
F42.078412
tp95
a(g5
I17
F0.0
F40.879013
tp96
a(g5
I20
F0.0
F42.291491
tp97
a(g5
I20
F0.0
F41.061438
tp98
a(g5
I21
F0.0
F42.321783
tp99
a(g5
I17
F0.0
F40.750958
tp100
a(g5
I17
F0.0
F41.396167
tp101
a(g5
I18
F0.0
F40.269164
tp102
a(g5
I20
F0.0
F40.853093
tp103
a(g5
I19
F0.0
F41.983863
tp104
a(g5
I18
F0.0
F40.598492
tp105
a(g5
I20
F0.0
F40.879305
tp106
a(g5
I19
F0.0
F40.893233
tp107
a(g5
I20
F0.0
F41.359997
tp108
a(g5
I19
F0.0
F40.204522
tp109
a(g5
I17
F0.0
F41.99222
tp110
a(g5
I20
F0.0
F42.178035
tp111
a(g5
I18
F0.0
F40.347392
tp112
a(g5
I19
F0.0
F42.57767
tp113
a(g5
I18
F0.0
F41.625434
tp114
a(g5
I18
F0.0
F41.364208
tp115
a(g5
I17
F0.0
F40.588473
tp116
a(g5
I18
F0.0
F41.827409
tp117
a(g5
I19
F0.0
F40.544027
tp118
a(g5
I19
F0.0
F41.92644
tp119
a(g5
I18
F0.0
F40.610254
tp120
a(g5
I18
F0.0
F40.4602
tp121
a(g5
I19
F0.0
F42.59758
tp122
a(g5
I21
F0.0
F42.189866
tp123
a(g5
I19
F0.0
F40.06251
tp124
a(g5
I18
F0.0
F41.831747
tp125
a(g5
I20
F0.0
F42.710034
tp126
a(g5
I20
F0.0
F41.202693
tp127
a(g5
I19
F0.0
F41.056118
tp128
a(g5
I19
F0.0
F41.321214
tp129
a(g5
I20
F0.0
F42.21612
tp130
a(g5
I19
F0.0
F40.431729
tp131
a(g5
I19
F0.0
F42.767429
tp132
a(g5
I18
F0.0
F41.330276
tp133
a(g5
I18
F0.0
F40.528915
tp134
a(g5
I19
F0.0
F40.654909
tp135
a(g5
I20
F0.0
F40.379685
tp136
a(g5
I20
F0.0
F41.316979
tp137
a(g5
I17
F0.0
F41.196846
tp138
a(g5
I19
F0.0
F40.513512
tp139
a(g5
I18
F0.0
F41.931604
tp140
a(g5
I19
F0.0
F40.453095
tp141
a(g5
I20
F0.0
F41.434521
tp142
a(g5
I18
F0.0
F40.065473
tp143
a(g5
I18
F0.0
F40.050556
tp144
a(g5
I21
F0.0
F42.34003
tp145
a(g5
I18
F0.0
F40.747584
tp146
a(g5
I20
F0.0
F42.279831
tp147
a(g5
I19
F0.0
F41.467827
tp148
a(g5
I18
F0.0
F40.24082
tp149
a(g5
I20
F0.0
F41.794302
tp150
a(g5
I17
F0.0
F40.283935
tp151
a(g5
I20
F0.0
F41.526539
tp152
a(g5
I18
F0.0
F40.227317
tp153
a(g5
I19
F0.0
F42.320482
tp154
a(g5
I21
F0.0
F42.437046
tp155
a(g5
I18
F0.0
F40.348574
tp156
a(g5
I18
F0.0
F40.593351
tp157
a(g5
I20
F0.0
F41.592589
tp158
a(g5
I18
F0.0
F41.342879
tp159
a(g5
I18
F0.0
F42.897965
tp160
a(g5
I15
F0.0
F40.31424
tp161
a(g5
I20
F0.0
F41.48631
tp162
a(g5
I19
F0.0
F41.894931
tp163
a(g5
I18
F0.0
F40.512428
tp164
a(g5
I19
F0.0
F42.912266
tp165
a(g5
I20
F0.0
F43.094929
tp166
a(g5
I19
F0.0
F41.584488
tp167
a(g5
I19
F0.0
F41.845726
tp168
a(g5
I16
F0.0
F40.506209
tp169
a(g5
I18
F0.0
F41.232408
tp170
a(g5
I18
F0.0
F42.695936
tp171
a(g5
I21
F0.0
F41.334056
tp172
a(g5
I19
F0.0
F40.665701
tp173
a(g5
I19
F0.0
F40.510768
tp174
a(g5
I21
F0.0
F41.5872
tp175
a(g5
I20
F0.0
F41.869645
tp176
a(g5
I16
F0.0
F40.846775
tp177
a(g5
I18
F0.0
F40.25601
tp178
a(g5
I18
F0.0
F40.864522
tp179
a(g5
I18
F0.0
F40.376918
tp180
a(g5
I18
F0.0
F40.065597
tp181
a(g5
I19
F0.0
F40.753217
tp182
a(g5
I18
F0.0
F40.882427
tp183
a(g5
I19
F0.0
F40.976681
tp184
a(g5
I19
F0.0
F42.888588
tp185
a(g5
I17
F0.0
F40.913445
tp186
a(g5
I18
F0.0
F41.324581
tp187
a(g5
I18
F0.0
F41.971624
tp188
a(g5
I19
F0.0
F41.377143
tp189
a(g5
I18
F0.0
F40.638373
tp190
a(g5
I17
F0.0
F42.38068
tp191
a(g5
I18
F0.0
F40.549737
tp192
a(g5
I18
F0.0
F40.120278
tp193
a(g5
I18
F0.0
F40.381275
tp194
a(g5
I17
F0.0
F40.059964
tp195
a(g5
I18
F0.0
F41.198188
tp196
a(g5
I18
F0.0
F42.517923
tp197
a(g5
I18
F0.0
F42.112298
tp198
a(g5
I21
F0.0
F40.929935
tp199
a(g5
I17
F0.0
F40.394862
tp200
a(g5
I17
F0.0
F41.374348
tp201
a(g5
I19
F0.0
F41.945025
tp202
a(g5
I18
F0.0
F40.206122
tp203
a(g5
I20
F0.0
F41.263149
tp204
a(g5
I19
F0.0
F42.526983
tp205
a(g5
I18
F0.0
F42.010232
tp206
a(g5
I18
F0.0
F40.234876
tp207
a(g5
I17
F0.0
F40.436898
tp208
a(g5
I20
F0.0
F41.925283
tp209
a(g5
I19
F0.0
F42.108723
tp210
a(g5
I19
F0.0
F41.000248
tp211
a(g5
I19
F0.0
F42.282146
tp212
a(g5
I19
F0.0
F42.679485
tp213
a(g5
I18
F0.0
F41.397635
tp214
a(g5
I18
F0.0
F42.354618
tp215
a(g5
I18
F0.0
F40.373394
tp216
a(g5
I17
F0.0
F40.448017
tp217
a(g5
I18
F0.0
F41.253513
tp218
a(g5
I19
F0.0
F41.585055
tp219
a(g5
I21
F0.0
F42.74184
tp220
a(g5
I18
F0.0
F41.81632
tp221
a(g5
I19
F0.0
F41.246082
tp222
a(g5
I18
F0.0
F42.258361
tp223
a(g5
I18
F0.0
F42.463281
tp224
a(g5
I19
F0.0
F41.009117
tp225
a(g5
I18
F0.0
F41.191542
tp226
a(g5
I19
F0.0
F41.141626
tp227
a(g5
I21
F0.0
F42.285449
tp228
a(g5
I19
F0.0
F41.055549
tp229
a(g5
I21
F0.0
F40.570507
tp230
a(g5
I20
F0.0
F41.073258
tp231
a(g5
I16
F0.0
F40.201794
tp232
a(g5
I18
F0.0
F41.186206
tp233
a(g5
I16
F0.0
F40.606062
tp234
a(g5
I18
F0.0
F41.145931
tp235
a(g5
I18
F0.0
F40.74306
tp236
a(g5
I19
F0.0
F40.975523
tp237
a(g5
I22
F0.0
F40.758328
tp238
a(g5
I19
F0.0
F40.622442
tp239
a(g5
I21
F0.0
F42.023367
tp240
a(g5
I19
F0.0
F40.417741
tp241
a(g5
I19
F0.0
F42.571162
tp242
a(g5
I18
F0.0
F40.436515
tp243
a(g5
I19
F0.0
F41.758302
tp244
a(g5
I17
F0.0
F40.272027
tp245
a(g5
I19
F0.0
F40.265566
tp246
a(g5
I19
F0.0
F42.783204
tp247
a(g5
I17
F0.0
F41.616779
tp248
a(g5
I18
F0.0
F40.45699
tp249
a(g5
I18
F0.0
F42.267587
tp250
a(g5
I18
F0.0
F41.452176
tp251
a(g5
I17
F0.0
F40.757642
tp252
a(g5
I20
F0.0
F42.666897
tp253
a(g5
I19
F0.0
F40.658374
tp254
a(g5
I20
F0.0
F42.368847
tp255
a(g5
I19
F0.0
F41.789998
tp256
a(g5
I17
F0.0
F40.827025
tp257
a(g5
I20
F0.0
F43.006233
tp258
a(g5
I20
F0.0
F41.799529
tp259
a(g5
I21
F0.0
F40.382857
tp260
a(g5
I19
F0.0
F41.335804
tp261
a(g5
I18
F0.0
F42.805473
tp262
a(g5
I19
F0.0
F41.651259
tp263
a(g5
I18
F0.0
F40.461898
tp264
a(g5
I19
F0.0
F41.504512
tp265
a(g5
I19
F0.0
F43.123035
tp266
a(g5
I19
F0.0
F41.973964
tp267
a(g5
I19
F0.0
F41.925959
tp268
a(g5
I19
F0.0
F42.331099
tp269
a(g5
I19
F0.0
F42.792385
tp270
a(g5
I21
F0.0
F41.621848
tp271
a(g5
I18
F0.0
F42.365664
tp272
a(g5
I17
F0.0
F40.830436
tp273
a(g5
I18
F0.0
F40.417942
tp274
a(g5
I20
F0.0
F41.402792
tp275
a(g5
I19
F0.0
F40.209897
tp276
a(g5
I18
F0.0
F40.711816
tp277
a(g5
I19
F0.0
F40.431779
tp278
a(g5
I16
F0.0
F40.272227
tp279
a(g5
I21
F0.0
F41.166159
tp280
a(g5
I20
F0.0
F40.877726
tp281
a(g5
I21
F0.0
F42.055174
tp282
a(g5
I18
F0.0
F40.071636
tp283
a(g5
I20
F0.0
F41.920788
tp284
a(g5
I21
F0.0
F41.567288
tp285
a(g5
I17
F0.0
F40.889544
tp286
a(g5
I18
F0.0
F42.24798
tp287
a(g5
I18
F0.0
F40.697898
tp288
a(g5
I19
F0.0
F41.644292
tp289
a(g5
I20
F0.0
F40.044064
tp290
a(g5
I17
F0.0
F41.163138
tp291
a(g5
I19
F0.0
F41.813231
tp292
a(g5
I19
F0.0
F40.30604
tp293
a(g5
I20
F0.0
F42.178487
tp294
a(g5
I19
F0.0
F40.129508
tp295
a(g5
I19
F0.0
F41.981714
tp296
a(g5
I17
F0.0
F42.05598
tp297
a(g5
I18
F0.0
F42.520451
tp298
a(g5
I19
F0.0
F41.50065
tp299
a(g5
I20
F0.0
F42.15111
tp300
a(g5
I18
F0.0
F40.946314
tp301
a(g5
I18
F0.0
F42.260979
tp302
a(g5
I19
F0.0
F41.385575
tp303
a(g5
I19
F0.0
F41.24273
tp304
a(g5
I20
F0.0
F41.590233
tp305
a(g5
I18
F0.0
F40.07903
tp306
a(g5
I21
F0.0
F42.932639
tp307
a(g5
I20
F0.0
F40.060989
tp308
a(g5
I19
F0.0
F41.873019
tp309
a(g5
I18
F0.0
F40.595819
tp310
a(g5
I18
F0.0
F42.541059
tp311
a(g5
I18
F0.0
F40.296932
tp312
a(g5
I19
F0.0
F40.457747
tp313
a(g5
I21
F0.0
F41.379424
tp314
a(g5
I19
F0.0
F41.121398
tp315
a(g5
I20
F0.0
F40.208548
tp316
a(g5
I20
F0.0
F42.963431
tp317
a(g5
I19
F0.0
F41.468449
tp318
a(g5
I18
F0.0
F40.425798
tp319
a(g5
I18
F0.0
F40.035215
tp320
a(g5
I19
F0.0
F41.773558
tp321
a(g5
I19
F0.0
F40.404736
tp322
a(g5
I20
F0.0
F41.392481
tp323
a(g5
I20
F0.0
F40.656535
tp324
a(g5
I18
F0.0
F40.758865
tp325
a(g5
I17
F0.0
F40.744031
tp326
a(g5
I21
F0.0
F40.462678
tp327
a(g5
I20
F0.0
F40.342155
tp328
a(g5
I16
F0.0
F40.302919
tp329
a(g5
I21
F0.0
F42.41323
tp330
a(g5
I19
F0.0
F41.634044
tp331
a(g5
I19
F0.0
F42.113384
tp332
a(g5
I20
F0.0
F40.470396
tp333
a(g5
I18
F0.0
F40.704294
tp334
a(g5
I19
F0.0
F40.206017
tp335
a(g5
I19
F0.0
F40.38528
tp336
a(g5
I18
F0.0
F40.914456
tp337
a(g5
I19
F0.0
F42.295586
tp338
a(g5
I19
F0.0
F41.629301
tp339
a(g5
I18
F0.0
F40.245818
tp340
a(g5
I19
F0.0
F41.67713
tp341
a(g5
I16
F0.0
F41.766756
tp342
a(g5
I19
F0.0
F40.469028
tp343
a(g5
I18
F0.0
F40.575541
tp344
a(g5
I20
F0.0
F40.228374
tp345
a(g5
I22
F0.0
F42.047106
tp346
a(g5
I20
F0.0
F41.618955
tp347
a(g5
I18
F0.0
F41.01649
tp348
a(g5
I18
F0.0
F40.946947
tp349
a(g5
I18
F0.0
F41.572124
tp350
a(g5
I19
F0.0
F42.344255
tp351
a(g5
I20
F0.0
F40.712363
tp352
a(g5
I19
F0.0
F40.613735
tp353
a(g5
I20
F0.0
F40.162108
tp354
a(g5
I18
F0.0
F40.901325
tp355
a(g5
I19
F0.0
F42.543599
tp356
a(g5
I16
F0.0
F40.135746
tp357
a(g5
I18
F0.0
F41.486292
tp358
a(g5
I19
F0.0
F40.36774
tp359
a(g5
I20
F0.0
F40.939017
tp360
a(g5
I21
F0.0
F40.960268
tp361
a(g5
I21
F0.0
F40.800564
tp362
a(g5
I18
F0.0
F40.629103
tp363
a(g5
I19
F0.0
F41.623116
tp364
a(g5
I19
F0.0
F43.153955
tp365
a(g5
I19
F0.0
F40.430582
tp366
a(g5
I20
F0.0
F43.125171
tp367
a(g5
I19
F0.0
F41.326874
tp368
a(g5
I17
F0.0
F40.471897
tp369
a(g5
I20
F0.0
F41.181964
tp370
a(g5
I19
F0.0
F40.079283
tp371
a(g5
I20
F0.0
F41.37006
tp372
a(g5
I20
F0.0
F40.841919
tp373
a(g5
I19
F0.0
F40.500117
tp374
a(g5
I19
F0.0
F42.50672
tp375
a(g5
I17
F0.0
F41.534386
tp376
a(g5
I19
F0.0
F42.318545
tp377
a(g5
I18
F0.0
F40.571635
tp378
a(g5
I20
F0.0
F42.437344
tp379
a(g5
I18
F0.0
F40.104494
tp380
a(g5
I19
F0.0
F41.837991
tp381
a(g5
I19
F0.0
F41.018997
tp382
a(g5
I18
F0.0
F40.971111
tp383
a(g5
I18
F0.0
F40.203979
tp384
a(g5
I20
F0.0
F42.556258
tp385
a(g5
I17
F0.0
F40.239564
tp386
a(g5
I19
F0.0
F40.922777
tp387
a(g5
I20
F0.0
F41.616796
tp388
a(g5
I19
F0.0
F42.421814
tp389
a(g5
I19
F0.0
F41.253996
tp390
a(g5
I18
F0.0
F41.613235
tp391
a(g5
I21
F0.0
F42.060679
tp392
a(g5
I19
F0.0
F41.226768
tp393
a(g5
I18
F0.0
F40.391185
tp394
a(g5
I20
F0.0
F41.448862
tp395
a(g5
I21
F0.0
F40.525278
tp396
a(g5
I20
F0.0
F40.967497
tp397
a(g5
I21
F0.0
F41.509054
tp398
a(g5
I19
F0.0
F41.559821
tp399
a(g5
I15
F0.0
F40.814307
tp400
a(g5
I19
F0.0
F41.652855
tp401
a(g5
I20
F0.0
F41.498128
tp402
a(g5
I20
F0.0
F41.662442
tp403
a(g5
I17
F0.0
F41.268688
tp404
a(g5
I19
F0.0
F41.7508
tp405
a(g5
I18
F0.0
F41.014101
tp406
a(g5
I19
F0.0
F41.422825
tp407
a(g5
I19
F0.0
F42.796601
tp408
a(g5
I19
F0.0
F41.399229
tp409
a(g5
I18
F0.0
F40.070235
tp410
a(g5
I18
F0.0
F42.768677
tp411
a(g5
I18
F0.0
F41.839668
tp412
a(g5
I18
F0.0
F40.216275
tp413
a(g5
I18
F0.0
F40.74931
tp414
a(g5
I19
F0.0
F40.726938
tp415
a(g5
I20
F0.0
F40.454909
tp416
a(g5
I21
F0.0
F41.684874
tp417
a(g5
I20
F0.0
F42.218582
tp418
a(g5
I18
F0.0
F42.560021
tp419
a(g5
I21
F0.0
F41.594832
tp420
a(g5
I19
F0.0
F40.807597
tp421
a(g5
I21
F0.0
F42.006543
tp422
a(g5
I20
F0.0
F40.547351
tp423
a(g5
I20
F0.0
F40.448618
tp424
a(g5
I16
F0.0
F41.644088
tp425
a(g5
I20
F0.0
F40.239916
tp426
a(g5
I19
F0.0
F40.061675
tp427
a(g5
I19
F0.0
F41.482452
tp428
a(g5
I20
F0.0
F40.487709
tp429
a(g5
I21
F0.0
F42.1001
tp430
a(g5
I20
F0.0
F40.488035
tp431
a(g5
I19
F0.0
F40.768192
tp432
a(g5
I19
F0.0
F41.750974
tp433
a(g5
I19
F0.0
F41.961211
tp434
a(g5
I17
F0.0
F40.111495
tp435
a(g5
I20
F0.0
F42.414303
tp436
a(g5
I17
F0.0
F40.36753
tp437
a(g5
I19
F0.0
F42.20531
tp438
a(g5
I19
F0.0
F40.746586
tp439
a(g5
I21
F0.0
F40.794889
tp440
a(g5
I19
F0.0
F41.971274
tp441
a(g5
I19
F0.0
F40.533934
tp442
a(g5
I19
F0.0
F41.847291
tp443
a(g5
I21
F0.0
F41.510875
tp444
a(g5
I19
F0.0
F41.402987
tp445
a(g5
I19
F0.0
F42.727872
tp446
a(g5
I18
F0.0
F40.90752
tp447
a(g5
I19
F0.0
F40.702991
tp448
a(g5
I19
F0.0
F40.890482
tp449
a(g5
I19
F0.0
F40.724379
tp450
a(g5
I20
F0.0
F41.795165
tp451
a(g5
I19
F0.0
F40.04322
tp452
a(g5
I19
F0.0
F42.113658
tp453
a(g5
I19
F0.0
F41.94486
tp454
a(g5
I16
F0.0
F40.817556
tp455
a(g5
I18
F0.0
F40.551244
tp456
a(g5
I19
F0.0
F40.632013
tp457
a(g5
I18
F0.0
F41.198898
tp458
a(g5
I19
F0.0
F41.622285
tp459
a(g5
I20
F0.0
F41.11354
tp460
a(g5
I19
F0.0
F40.63005
tp461
a(g5
I19
F0.0
F41.705035
tp462
a(g5
I18
F0.0
F40.684116
tp463
a(g5
I18
F0.0
F40.825461
tp464
a(g5
I19
F0.0
F42.31293
tp465
a(g5
I17
F0.0
F41.688866
tp466
a(g5
I16
F0.0
F40.698298
tp467
a(g5
I18
F0.0
F40.050423
tp468
a(g5
I18
F0.0
F41.78074
tp469
a(g5
I18
F0.0
F40.069936
tp470
a(g5
I19
F0.0
F41.320605
tp471
a(g5
I20
F0.0
F42.339558
tp472
a(g5
I20
F0.0
F40.981765
tp473
a(g5
I18
F0.0
F41.77211
tp474
a(g5
I19
F0.0
F42.944544
tp475
a(g5
I17
F0.0
F41.928613
tp476
a(g5
I17
F0.0
F41.669656
tp477
a(g5
I19
F0.0
F40.495851
tp478
a(g5
I18
F0.0
F40.560664
tp479
a(g5
I19
F0.0
F41.385324
tp480
a(g5
I18
F0.0
F40.525498
tp481
a(g5
I18
F0.0
F40.730471
tp482
a(g5
I19
F0.0
F40.906813
tp483
a(g5
I18
F0.0
F42.190087
tp484
a(g5
I18
F0.0
F40.523845
tp485
a(g5
I20
F0.0
F42.251517
tp486
a(g5
I18
F0.0
F41.623395
tp487
a(g5
I19
F0.0
F42.663145
tp488
a(g5
I18
F0.0
F42.687506
tp489
a(g5
I18
F0.0
F40.707809
tp490
a(g5
I18
F0.0
F42.945208
tp491
a(g5
I19
F0.0
F40.90962
tp492
a(g5
I19
F0.0
F42.282492
tp493
a(g5
I19
F0.0
F41.233816
tp494
a(g5
I19
F0.0
F42.531945
tp495
a(g5
I19
F0.0
F41.663676
tp496
a(g5
I18
F0.0
F42.179006
tp497
a(g5
I19
F0.0
F41.868865
tp498
a(g5
I17
F0.0
F43.084016
tp499
a(g5
I18
F0.0
F40.658297
tp500
a(g5
I18
F0.0
F40.107644
tp501
a(g5
I19
F0.0
F41.615508
tp502
a(g5
I19
F0.0
F40.396625
tp503
a(g5
I18
F0.0
F40.147748
tp504
a(g5
I20
F0.0
F42.523087
tp505
a(g5
I19
F0.0
F41.621061
tp506
a(g5
I18
F0.0
F40.734677
tp507
a(g5
I20
F0.0
F42.397321
tp508
a(g5
I19
F0.0
F40.973704
tp509
a(g5
I18
F0.0
F40.05217
tp510
a(g5
I21
F0.0
F41.095791
tp511
a(g5
I19
F0.0
F40.776815
tp512
a(g5
I20
F0.0
F40.868007
tp513
a(g5
I18
F0.0
F41.545338
tp514
a(g5
I18
F0.0
F43.591149
tp515
a(g5
I17
F0.0
F40.499249
tp516
a(g5
I18
F0.0
F42.393028
tp517
a(g5
I18
F0.0
F40.386233
tp518
a(g5
I17
F0.0
F41.970695
tp519
a(g5
I18
F0.0
F43.522953
tp520
a(g5
I18
F0.0
F40.611726
tp521
a(g5
I17
F0.0
F40.087803
tp522
a(g5
I20
F0.0
F42.529827
tp523
a(g5
I18
F0.0
F40.820789
tp524
a(g5
I18
F0.0
F40.802703
tp525
a(g5
I19
F0.0
F40.939156
tp526
a(g5
I17
F0.0
F42.249874
tp527
a(g5
I19
F0.0
F41.301777
tp528
a(g5
I18
F0.0
F41.255604
tp529
a(g5
I18
F0.0
F40.458598
tp530
a(g5
I19
F0.0
F41.848638
tp531
a(g5
I19
F0.0
F41.504108
tp532
a(g5
I19
F0.0
F40.889292
tp533
a(g5
I20
F0.0
F42.59926
tp534
a(g5
I20
F0.0
F40.556607
tp535
a(g5
I19
F0.0
F41.171129
tp536
a(g5
I20
F0.0
F41.646238
tp537
a(g5
I18
F0.0
F40.642092
tp538
a(g5
I18
F0.0
F41.037825
tp539
a(g5
I22
F0.0
F40.606584
tp540
a(g5
I17
F0.0
F40.545478
tp541
a(g5
I20
F0.0
F43.645143
tp542
a(g5
I19
F0.0
F40.563619
tp543
a(g5
I19
F0.0
F42.169361
tp544
a(g5
I18
F0.0
F40.138343
tp545
a(g5
I19
F0.0
F42.350978
tp546
a(g5
I19
F0.0
F40.881426
tp547
a(g5
I19
F0.0
F41.846515
tp548
a(g5
I18
F0.0
F41.100476
tp549
a(g5
I21
F0.0
F42.388741
tp550
a(g5
I19
F0.0
F40.228176
tp551
a(g5
I20
F0.0
F42.236462
tp552
a(g5
I20
F0.0
F42.482431
tp553
a(g5
I21
F0.0
F43.476712
tp554
a(g5
I19
F0.0
F40.569011
tp555
a(g5
I20
F0.0
F40.75738
tp556
a(g5
I18
F0.0
F40.112988
tp557
a(g5
I17
F0.0
F40.112743
tp558
a(g5
I18
F0.0
F41.420963
tp559
a(g5
I19
F0.0
F40.754054
tp560
a(g5
I18
F0.0
F42.387782
tp561
a(g5
I19
F0.0
F40.762597
tp562
a(g5
I19
F0.0
F42.283707
tp563
a(g5
I18
F0.0
F42.463597
tp564
a(g5
I19
F0.0
F41.631898
tp565
a(g5
I19
F0.0
F42.957735
tp566
a(g5
I20
F0.0
F40.284561
tp567
a(g5
I18
F0.0
F41.141207
tp568
a(g5
I18
F0.0
F42.790491
tp569
a(g5
I19
F0.0
F40.215707
tp570
a(g5
I19
F0.0
F40.921517
tp571
a(g5
I19
F0.0
F40.627452
tp572
a(g5
I19
F0.0
F41.863196
tp573
a(g5
I18
F0.0
F40.472622
tp574
a(g5
I19
F0.0
F42.531178
tp575
a(g5
I17
F0.0
F40.606937
tp576
a(g5
I18
F0.0
F40.072228
tp577
a(g5
I19
F0.0
F40.974199
tp578
a(g5
I19
F0.0
F40.539185
tp579
a(g5
I19
F0.0
F41.545914
tp580
a(g5
I18
F0.0
F40.139994
tp581
a(g5
I18
F0.0
F41.484741
tp582
a(g5
I18
F0.0
F41.114069
tp583
a(g5
I20
F0.0
F40.131637
tp584
a(g5
I19
F0.0
F41.205797
tp585
a(g5
I19
F0.0
F41.3096
tp586
a(g5
I18
F0.0
F41.632505
tp587
a(g5
I17
F0.0
F41.043988
tp588
a(g5
I18
F0.0
F40.153363
tp589
a(g5
I19
F0.0
F41.654618
tp590
a(g5
I18
F0.0
F41.735043
tp591
a(g5
I20
F0.0
F41.1754
tp592
a(g5
I17
F0.0
F41.162375
tp593
a(g5
I20
F0.0
F43.263893
tp594
a(g5
I18
F0.0
F42.525087
tp595
a(g5
I17
F0.0
F42.507423
tp596
a(g5
I20
F0.0
F41.832326
tp597
a(g5
I17
F0.0
F40.508398
tp598
a(g5
I19
F0.0
F41.150508
tp599
a(g5
I20
F0.0
F41.498484
tp600
a(g5
I17
F0.0
F42.340912
tp601
a(g5
I18
F0.0
F40.580894
tp602
a(g5
I19
F0.0
F41.658698
tp603
a(g5
I18
F0.0
F40.059853
tp604
a(g5
I20
F0.0
F41.596965
tp605
a(g5
I20
F0.0
F41.243719
tp606
a(g5
I18
F0.0
F40.325352
tp607
a(g5
I17
F0.0
F40.495759
tp608
a(g5
I18
F0.0
F43.262393
tp609
a(g5
I19
F0.0
F41.252405
tp610
a(g5
I22
F0.0
F42.641744
tp611
a(g5
I19
F0.0
F41.260483
tp612
a(g5
I17
F0.0
F41.635553
tp613
a(g5
I18
F0.0
F40.149687
tp614
a(g5
I19
F0.0
F41.331272
tp615
a(g5
I17
F0.0
F40.871216
tp616
a(g5
I18
F0.0
F40.900788
tp617
a(g5
I20
F0.0
F41.660997
tp618
a(g5
I18
F0.0
F40.356035
tp619
a(g5
I19
F0.0
F41.261321
tp620
a(g5
I20
F0.0
F43.311106
tp621
a(g5
I20
F0.0
F40.993443
tp622
a(g5
I17
F0.0
F40.075586
tp623
a(g5
I18
F0.0
F42.331135
tp624
a(g5
I18
F0.0
F42.45898
tp625
a(g5
I18
F0.0
F40.208978
tp626
a(g5
I20
F0.0
F40.586947
tp627
a(g5
I19
F0.0
F41.540081
tp628
a(g5
I20
F0.0
F43.23676
tp629
a(g5
I19
F0.0
F41.880886
tp630
a(g5
I17
F0.0
F40.235738
tp631
a(g5
I17
F0.0
F42.252592
tp632
a(g5
I18
F0.0
F40.354628
tp633
a(g5
I18
F0.0
F40.152743
tp634
a(g5
I22
F0.0
F41.299668
tp635
a(g5
I21
F0.0
F42.007149
tp636
a(g5
I19
F0.0
F40.115218
tp637
a(g5
I18
F0.0
F43.669933
tp638
a(g5
I19
F0.0
F41.694289
tp639
a(g5
I18
F0.0
F41.785743
tp640
a(g5
I18
F0.0
F40.469103
tp641
a(g5
I19
F0.0
F40.922757
tp642
a(g5
I18
F0.0
F41.337048
tp643
a(g5
I19
F0.0
F41.843622
tp644
a(g5
I19
F0.0
F41.26959
tp645
a(g5
I18
F0.0
F40.657437
tp646
a(g5
I19
F0.0
F41.30886
tp647
a(g5
I16
F0.0
F40.589782
tp648
a(g5
I18
F0.0
F40.038589
tp649
a(g5
I18
F0.0
F40.452934
tp650
a(g5
I17
F0.0
F40.914626
tp651
a(g5
I18
F0.0
F41.546617
tp652
a(g5
I18
F0.0
F42.473875
tp653
a(g5
I18
F0.0
F40.691443
tp654
a(g5
I19
F0.0
F41.203703
tp655
a(g5
I19
F0.0
F40.110223
tp656
a(g5
I18
F0.0
F41.116837
tp657
a(g5
I20
F0.0
F40.245904
tp658
a(g5
I19
F0.0
F41.014733
tp659
a(g5
I19
F0.0
F42.014062
tp660
a(g5
I20
F0.0
F41.341983
tp661
a(g5
I20
F0.0
F40.143728
tp662
a(g5
I18
F0.0
F40.237516
tp663
a(g5
I19
F0.0
F40.438368
tp664
a(g5
I18
F0.0
F40.980102
tp665
a(g5
I17
F0.0
F41.252865
tp666
a(g5
I19
F0.0
F41.837929
tp667
a(g5
I19
F0.0
F41.206843
tp668
a(g5
I20
F0.0
F40.918117
tp669
a(g5
I19
F0.0
F40.33067
tp670
a(g5
I18
F0.0
F40.682878
tp671
a(g5
I18
F0.0
F41.884978
tp672
a(g5
I17
F0.0
F41.535167
tp673
a(g5
I18
F0.0
F40.428861
tp674
a(g5
I18
F0.0
F40.783241
tp675
a(g5
I18
F0.0
F40.165261
tp676
a(g5
I18
F0.0
F40.965187
tp677
a(g5
I20
F0.0
F41.206886
tp678
a(g5
I19
F0.0
F42.070191
tp679
a(g5
I18
F0.0
F41.238471
tp680
a(g5
I20
F0.0
F41.833648
tp681
a(g5
I20
F0.0
F40.608669
tp682
a(g5
I18
F0.0
F40.924808
tp683
a(g5
I21
F0.0
F41.285236
tp684
a(g5
I18
F0.0
F40.506017
tp685
a(g5
I17
F0.0
F40.291885
tp686
a(g5
I19
F0.0
F42.684824
tp687
a(g5
I20
F0.0
F41.283823
tp688
a(g5
I18
F0.0
F42.967243
tp689
a(g5
I19
F0.0
F41.684273
tp690
a(g5
I18
F0.0
F40.896947
tp691
a(g5
I16
F0.0
F40.119174
tp692
a(g5
I18
F0.0
F42.694961
tp693
a(g5
I20
F0.0
F40.586747
tp694
a(g5
I19
F0.0
F41.077632
tp695
a(g5
I19
F0.0
F40.887555
tp696
a(g5
I19
F0.0
F42.189576
tp697
a(g5
I18
F0.0
F41.212885
tp698
a(g5
I19
F0.0
F42.016789
tp699
a(g5
I18
F0.0
F41.011824
tp700
a(g5
I20
F0.0
F41.089199
tp701
a(g5
I18
F0.0
F41.355291
tp702
a(g5
I18
F0.0
F40.899746
tp703
a(g5
I19
F0.0
F41.721744
tp704
a(g5
I19
F0.0
F41.163309
tp705
a(g5
I21
F0.0
F42.040357
tp706
a(g5
I17
F0.0
F41.537804
tp707
a(g5
I19
F0.0
F41.339774
tp708
a(g5
I19
F0.0
F40.343727
tp709
a(g5
I21
F0.0
F41.124566
tp710
a(g5
I18
F0.0
F42.412465
tp711
a(g5
I19
F0.0
F40.176273
tp712
a(g5
I19
F0.0
F40.45193
tp713
a(g5
I20
F0.0
F42.27848
tp714
a(g5
I19
F0.0
F40.792325
tp715
a(g5
I19
F0.0
F41.159924
tp716
a(g5
I19
F0.0
F40.169821
tp717
a(g5
I19
F0.0
F41.756083
tp718
a(g5
I20
F0.0
F41.00268
tp719
a(g5
I19
F0.0
F40.084447
tp720
a(g5
I22
F0.0
F41.894252
tp721
a(g5
I20
F0.0
F41.637464
tp722
a(g5
I18
F0.0
F40.236091
tp723
a(g5
I19
F0.0
F40.602709
tp724
a(g5
I20
F0.0
F41.591306
tp725
a(g5
I19
F0.0
F40.826397
tp726
a(g5
I20
F0.0
F42.740748
tp727
a(g5
I19
F0.0
F42.717229
tp728
a(g5
I19
F0.0
F41.678967
tp729
a(g5
I19
F0.0
F43.168831
tp730
a(g5
I20
F0.0
F41.416961
tp731
a(g5
I18
F0.0
F40.805565
tp732
a(g5
I18
F0.0
F41.051438
tp733
a(g5
I19
F0.0
F40.702969
tp734
a(g5
I21
F0.0
F41.122047
tp735
a(g5
I20
F0.0
F42.243477
tp736
a(g5
I19
F0.0
F41.194338
tp737
a(g5
I18
F0.0
F42.19626
tp738
a(g5
I18
F0.0
F40.795241
tp739
a(g5
I17
F0.0
F40.334756
tp740
a(g5
I19
F0.0
F42.31912
tp741
a(g5
I18
F0.0
F41.955652
tp742
a(g5
I19
F0.0
F40.120862
tp743
a(g5
I20
F0.0
F41.474428
tp744
a(g5
I18
F0.0
F41.19271
tp745
a(g5
I18
F0.0
F40.242666
tp746
a(g5
I17
F0.0
F41.086502
tp747
a(g5
I18
F0.0
F40.307741
tp748
a(g5
I19
F0.0
F42.76215
tp749
a(g5
I17
F0.0
F40.647299
tp750
a(g5
I17
F0.0
F40.230518
tp751
a(g5
I20
F0.0
F40.840435
tp752
a(g5
I19
F0.0
F43.514351
tp753
a(g5
I20
F0.0
F42.398074
tp754
a(g5
I18
F0.0
F40.407803
tp755
a(g5
I20
F0.0
F41.645812
tp756
a(g5
I18
F0.0
F41.759006
tp757
a(g5
I19
F0.0
F41.446529
tp758
a(g5
I18
F0.0
F41.449197
tp759
a(g5
I18
F0.0
F40.815632
tp760
a(g5
I20
F0.0
F41.379247
tp761
a(g5
I20
F0.0
F41.001689
tp762
a(g5
I18
F0.0
F40.092156
tp763
a(g5
I19
F0.0
F40.801225
tp764
a(g5
I17
F0.0
F41.12093
tp765
a(g5
I19
F0.0
F41.586479
tp766
a(g5
I17
F0.0
F41.606462
tp767
a(g5
I19
F0.0
F41.325756
tp768
a(g5
I19
F0.0
F41.499445
tp769
a(g5
I19
F0.0
F40.615396
tp770
a(g5
I20
F0.0
F40.353074
tp771
a(g5
I20
F0.0
F40.320862
tp772
a(g5
I19
F0.0
F42.391472
tp773
a(g5
I18
F0.0
F41.656298
tp774
a(g5
I20
F0.0
F41.589508
tp775
a(g5
I17
F0.0
F40.915826
tp776
a(g5
I18
F0.0
F40.420318
tp777
a(g5
I20
F0.0
F40.906411
tp778
a(g5
I18
F0.0
F41.855684
tp779
a(g5
I18
F0.0
F41.538525
tp780
a(g5
I20
F0.0
F41.362175
tp781
a(g5
I19
F0.0
F41.171176
tp782
a(g5
I17
F0.0
F42.948482
tp783
a(g5
I18
F0.0
F41.587832
tp784
a(g5
I19
F0.0
F42.142375
tp785
a(g5
I20
F0.0
F41.620342
tp786
a(g5
I18
F0.0
F41.265911
tp787
a(g5
I17
F0.0
F40.984713
tp788
a(g5
I21
F0.0
F43.104516
tp789
a(g5
I19
F0.0
F41.926798
tp790
a(g5
I19
F0.0
F41.700819
tp791
a(g5
I19
F0.0
F41.275801
tp792
a(g5
I17
F0.0
F40.907935
tp793
a(g5
I18
F0.0
F40.727283
tp794
a(g5
I18
F0.0
F40.734187
tp795
a(g5
I19
F0.0
F40.812544
tp796
a(g5
I18
F0.0
F40.844189
tp797
a(g5
I19
F0.0
F40.42646
tp798
a(g5
I19
F0.0
F40.243958
tp799
a(g5
I17
F0.0
F40.810378
tp800
a(g5
I20
F0.0
F40.632795
tp801
a(g5
I17
F0.0
F41.371565
tp802
a(g5
I19
F0.0
F40.965693
tp803
a(g5
I19
F0.0
F41.152834
tp804
a(g5
I18
F0.0
F41.123088
tp805
a(g5
I18
F0.0
F41.437591
tp806
a(g5
I18
F0.0
F40.678521
tp807
a(g5
I19
F0.0
F41.426008
tp808
a(g5
I19
F0.0
F41.142827
tp809
a(g5
I18
F0.0
F41.557504
tp810
a(g5
I18
F0.0
F41.339828
tp811
a(g5
I18
F0.0
F40.300309
tp812
a(g5
I18
F0.0
F40.671499
tp813
a(g5
I20
F0.0
F41.48231
tp814
a(g5
I18
F0.0
F41.219202
tp815
a(g5
I19
F0.0
F41.549772
tp816
a(g5
I20
F0.0
F40.280615
tp817
a(g5
I19
F0.0
F40.570455
tp818
a(g5
I19
F0.0
F40.504142
tp819
a(g5
I19
F0.0
F41.490363
tp820
a(g5
I18
F0.0
F42.533348
tp821
a(g5
I20
F0.0
F41.36647
tp822
a(g5
I19
F0.0
F42.803699
tp823
a(g5
I20
F0.0
F40.82773
tp824
a(g5
I17
F0.0
F42.723236
tp825
a(g5
I23
F0.0
F40.247504
tp826
a(g5
I15
F0.0
F40.999645
tp827
a(g5
I20
F0.0
F41.787933
tp828
a(g5
I20
F0.0
F42.191644
tp829
a(g5
I20
F0.0
F41.968531
tp830
a(g5
I20
F0.0
F40.615355
tp831
a(g5
I19
F0.0
F41.918937
tp832
a(g5
I20
F0.0
F41.392212
tp833
a(g5
I20
F0.0
F41.440905
tp834
a(g5
I19
F0.0
F40.379892
tp835
a(g5
I18
F0.0
F41.324478
tp836
a(g5
I18
F0.0
F40.953903
tp837
a(g5
I21
F0.0
F40.957222
tp838
a(g5
I21
F0.0
F42.407107
tp839
a(g5
I18
F0.0
F40.737298
tp840
a(g5
I19
F0.0
F41.762696
tp841
a(g5
I20
F0.0
F42.328884
tp842
a(g5
I17
F0.0
F40.228022
tp843
a(g5
I19
F0.0
F40.886711
tp844
a(g5
I20
F0.0
F41.536423
tp845
a(g5
I18
F0.0
F40.838881
tp846
a(g5
I19
F0.0
F40.19793
tp847
a(g5
I18
F0.0
F40.810434
tp848
a(g5
I21
F0.0
F42.042328
tp849
a(g5
I17
F0.0
F42.536575
tp850
a(g5
I18
F0.0
F40.718328
tp851
a(g5
I18
F0.0
F41.002144
tp852
a(g5
I19
F0.0
F40.797593
tp853
a(g5
I20
F0.0
F42.670302
tp854
a(g5
I15
F0.0
F40.066163
tp855
a(g5
I19
F0.0
F41.937005
tp856
a(g5
I18
F0.0
F40.029754
tp857
a(g5
I17
F0.0
F40.19428
tp858
a(g5
I18
F0.0
F40.888038
tp859
a(g5
I17
F0.0
F40.08287
tp860
a(g5
I18
F0.0
F40.348205
tp861
a(g5
I18
F0.0
F41.271901
tp862
a(g5
I19
F0.0
F40.743772
tp863
a(g5
I21
F0.0
F41.959164
tp864
a(g5
I19
F0.0
F41.650122
tp865
a(g5
I17
F0.0
F40.163956
tp866
a(g5
I18
F0.0
F40.560424
tp867
a(g5
I18
F0.0
F40.579089
tp868
a(g5
I21
F0.0
F41.93621
tp869
a(g5
I19
F0.0
F40.773249
tp870
a(g5
I19
F0.0
F40.511371
tp871
a(g5
I18
F0.0
F40.316632
tp872
a(g5
I18
F0.0
F41.982071
tp873
a(g5
I17
F0.0
F42.399219
tp874
a(g5
I18
F0.0
F40.616858
tp875
a(g5
I18
F0.0
F40.070454
tp876
a(g5
I18
F0.0
F40.862258
tp877
a(g5
I15
F0.0
F40.382191
tp878
a(g5
I19
F0.0
F41.061208
tp879
a(g5
I19
F0.0
F40.774238
tp880
a(g5
I19
F0.0
F42.558141
tp881
a(g5
I18
F0.0
F41.350521
tp882
a(g5
I21
F0.0
F40.87861
tp883
a(g5
I20
F0.0
F41.764322
tp884
a(g5
I20
F0.0
F40.335693
tp885
a(g5
I19
F0.0
F42.11781
tp886
a(g5
I19
F0.0
F40.230056
tp887
a(g5
I20
F0.0
F40.057753
tp888
a(g5
I19
F0.0
F40.836149
tp889
a(g5
I18
F0.0
F41.743074
tp890
a(g5
I20
F0.0
F41.665356
tp891
a(g5
I18
F0.0
F41.634772
tp892
a(g5
I17
F0.0
F40.220023
tp893
a(g5
I19
F0.0
F40.17066
tp894
a(g5
I19
F0.0
F40.577302
tp895
a(g5
I19
F0.0
F41.245262
tp896
a(g5
I22
F0.0
F41.920401
tp897
a(g5
I20
F0.0
F42.850307
tp898
a(g5
I20
F0.0
F41.515518
tp899
a(g5
I17
F0.0
F41.991128
tp900
a(g5
I20
F0.0
F40.951743
tp901
a(g5
I20
F0.0
F40.405173
tp902
a(g5
I19
F0.0
F41.597247
tp903
a(g5
I20
F0.0
F42.104058
tp904
a(g5
I20
F0.0
F43.371695
tp905
a(g5
I18
F0.0
F41.463575
tp906
a(g5
I17
F0.0
F40.257413
tp907
a(g5
I19
F0.0
F43.247333
tp908
a(g5
I20
F0.0
F44.069238
tp909
a(g5
I18
F0.0
F40.950091
tp910
a(g5
I19
F0.0
F40.668627
tp911
a(g5
I20
F0.0
F41.064256
tp912
a(g5
I19
F0.0
F42.239822
tp913
a(g5
I18
F0.0
F40.045881
tp914
a(g5
I18
F0.0
F40.215554
tp915
a(g5
I18
F0.0
F40.917095
tp916
a(g5
I19
F0.0
F40.138766
tp917
a(g5
I19
F0.0
F43.148547
tp918
a(g5
I19
F0.0
F41.447344
tp919
a(g5
I17
F0.0
F40.411575
tp920
a(g5
I19
F0.0
F42.602605
tp921
a(g5
I19
F0.0
F40.740758
tp922
a(g5
I18
F0.0
F41.647838
tp923
a(g5
I21
F0.0
F40.62892
tp924
a(g5
I19
F0.0
F40.991349
tp925
a(g5
I17
F0.0
F41.333309
tp926
a(g5
I19
F0.0
F40.210979
tp927
a(g5
I19
F0.0
F42.111477
tp928
a(g5
I18
F0.0
F40.701202
tp929
a(g5
I19
F0.0
F41.574887
tp930
a(g5
I19
F0.0
F40.779395
tp931
a(g5
I19
F0.0
F41.648573
tp932
a(g5
I19
F0.0
F41.485813
tp933
a(g5
I18
F0.0
F41.415644
tp934
a(g5
I18
F0.0
F40.127595
tp935
a(g5
I19
F0.0
F40.258494
tp936
a(g5
I18
F0.0
F41.493447
tp937
a(g5
I18
F0.0
F40.853945
tp938
a(g5
I18
F0.0
F42.622233
tp939
a(g5
I20
F0.0
F41.915455
tp940
a(g5
I19
F0.0
F41.560185
tp941
a(g5
I18
F0.0
F40.353564
tp942
a(g5
I19
F0.0
F40.199409
tp943
a(g5
I17
F0.0
F40.100526
tp944
a(g5
I18
F0.0
F40.934435
tp945
a(g5
I20
F0.0
F40.532836
tp946
a(g5
I23
F0.0
F41.161078
tp947
a(g5
I20
F0.0
F40.317098
tp948
a(g5
I22
F0.0
F40.843934
tp949
a(g5
I20
F0.0
F40.05072
tp950
a(g5
I20
F0.0
F42.233407
tp951
a(g5
I22
F0.0
F41.828306
tp952
a(g5
I21
F0.0
F40.754288
tp953
a(g5
I23
F0.0
F40.534862
tp954
a(g5
I23
F0.0
F41.514402
tp955
ass.